(lp0
(S'order'
p1
I1414
tp2
a(S'address'
p3
I1293
tp4
a(S'report'
p5
I1216
tp6
a(S'mail'
p7
I1127
tp8
a(S'send'
p9
I1079
tp10
a(S'language'
p11
I1072
tp12
a(S'email'
p13
I1051
tp14
a(S'program'
p15
I1001
tp16
a(S'our'
p17
I987
tp18
a(S'list'
p19
I935
tp20
a(S'one'
p21
I917
tp22
a(S'name'
p23
I878
tp24
a(S'receive'
p25
I826
tp26
a(S'money'
p27
I788
tp28
a(S'free'
p29
I762
tp30
a(S'work'
p31
I755
tp32
a(S'information'
p33
I677
tp34
a(S'business'
p35
I654
tp36
a(S'please'
p37
I652
tp38
a(S'university'
p39
I595
tp40
a(S'us'
p41
I564
tp42
a(S'day'
p43
I556
tp44
a(S'follow'
p45
I544
tp46
a(S'internet'
p47
I520
tp48
a(S'over'
p49
I511
tp50
a(S'http'
p51
I479
tp52
a(S'check'
p53
I472
tp54
a(S'call'
p55
I469
tp56
a(S'each'
p57
I466
tp58
a(S'include'
p59
I452
tp60
a(S'com'
p61
I448
tp62
a(S'linguistic'
p63
I442
tp64
a(S'number'
p65
I423
tp66
a(S'want'
p67
I420
tp68
a(S'letter'
p69
I419
tp70
a(S'need'
p71
I418
tp72
a(S'many'
p73
I412
tp74
a(S'here'
p75
I397
tp76
a(S'market'
p77
I395
tp78
a(S'start'
p79
I390
tp80
a(S'even'
p81
I386
tp82
a(S'fax'
p83
I383
tp84
a(S'form'
p85
I380
tp86
a(S'most'
p87
I377
tp88
a(S'first'
p89
I373
tp90
a(S'web'
p91
I366
tp92
a(S'service'
p93
I363
tp94
a(S'interest'
p95
I362
tp96
a(S'software'
p97
I352
tp98
a(S'remove'
p99
I349
tp100
a(S'read'
p101
I347
tp102
a(S'those'
p103
I345
tp104
a(S'week'
p105
I344
tp106
a(S'every'
p107
I332
tp108
a(S'credit'
p109
I329
tp110
a(S'll'
p111
I326
tp112
a(S'site'
p113
I320
tp114
a(S'much'
p115
I318
tp116
a(S'edu'
p117
I318
tp118
a(S'english'
p119
I318
tp120
a(S'product'
p121
I317
tp122
a(S'bulk'
p123
I312
tp124
a(S'phone'
p125
I311
tp126
a(S'must'
p127
I299
tp128
a(S'two'
p129
I298
tp130
a(S'offer'
p131
I297
tp132
a(S'cost'
p133
I294
tp134
a(S'best'
p135
I291
tp136
a(S'www'
p137
I290
tp138
a(S'computer'
p139
I289
tp140
a(S'link'
p141
I283
tp142
a(S'state'
p143
I279
tp144
a(S'card'
p145
I278
tp146
a(S'de'
p147
I272
tp148
a(S'home'
p149
I268
tp150
a(S'available'
p151
I266
tp152
a(S'system'
p153
I264
tp154
a(S'message'
p155
I260
tp156
a(S'own'
p157
I260
tp158
a(S'after'
p159
I258
tp160
a(S'opportunity'
p161
I257
tp162
a(S'question'
p163
I257
tp164
a(S'pay'
p165
I256
tp166
a(S'place'
p167
I256
tp168
a(S'million'
p169
I254
tp170
a(S'within'
p171
I254
tp172
a(S'world'
p173
I253
tp174
a(S'write'
p175
I253
tp176
a(S'hour'
p177
I253
tp178
a(S'sell'
p179
I251
tp180
a(S'show'
p181
I248
tp182
a(S'help'
p183
I248
tp184
a(S'copy'
p185
I248
tp186
a(S'below'
p187
I247
tp188
a(S'same'
p189
I242
tp190
a(S'conference'
p191
I241
tp192
a(S'file'
p193
I238
tp194
a(S'through'
p195
I235
tp196
a(S'directory'
p197
I234
tp198
a(S'before'
p199
I232
tp200
a(S'easy'
p201
I229
tp202
a(S'where'
p203
I229
tp204
a(S'try'
p205
I226
tp206
a(S'income'
p207
I226
tp208
a(S'book'
p209
I226
tp210
a(S'thank'
p211
I225
tp212
a(S'tell'
p213
I222
tp214
a(S'today'
p215
I220
tp216
a(S'company'
p217
I219
tp218
a(S'member'
p219
I216
tp220
a(S'example'
p221
I215
tp222
a(S'word'
p223
I215
tp224
a(S'back'
p225
I214
tp226
a(S'different'
p227
I213
tp228
a(S'advertise'
p229
I213
tp230
a(S'month'
p231
I210
tp232
a(S'subject'
p233
I209
tp234
a(S'etc'
p235
I207
tp236
a(S'contact'
p237
I206
tp238
a(S'ask'
p239
I206
tp240
a(S'response'
p241
I204
tp242
a(S'cash'
p243
I204
tp244
a(S'learn'
p245
I203
tp246
a(S'little'
p247
I203
tp248
a(S'add'
p249
I202
tp250
a(S'cd'
p251
I200
tp252
a(S'research'
p253
I198
tp254
a(S'linguist'
p255
I198
tp256
a(S'per'
p257
I198
tp258
a(S'type'
p259
I197
tp260
a(S'right'
p261
I196
tp262
a(S'process'
p263
I196
tp264
a(S'anyone'
p265
I196
tp266
a(S'down'
p267
I196
tp268
a(S'again'
p269
I196
tp270
a(S've'
p271
I195
tp272
a(S'is'
p273
I195
tp274
a(S'least'
p275
I195
tp276
a(S'special'
p277
I194
tp278
a(S'price'
p279
I193
tp280
a(S'provide'
p281
I192
tp282
a(S'save'
p283
I192
tp284
a(S'level'
p285
I192
tp286
a(S're'
p287
I190
tp288
a(S'off'
p289
I190
tp290
a(S'live'
p291
I190
tp292
a(S'require'
p293
I188
tp294
a(S'financial'
p295
I186
tp296
a(S'line'
p297
I186
tp298
a(S'change'
p299
I186
tp300
a(S'sure'
p301
I186
tp302
a(S'few'
p303
I186
tp304
a(S'post'
p305
I185
tp306
a(S'box'
p307
I185
tp308
a(S'search'
p309
I185
tp310
a(S'let'
p311
I184
tp312
a(S'ffa'
p313
I183
tp314
a(S'never'
p315
I181
tp316
a(S'paper'
p317
I179
tp318
a(S'four'
p319
I177
tp320
a(S'thing'
p321
I177
tp322
a(S'life'
p323
I175
tp324
a(S'teach'
p325
I175
tp326
a(S'case'
p327
I175
tp328
a(S'page'
p329
I174
tp330
a(S'participate'
p331
I173
tp332
a(S'great'
p333
I172
tp334
a(S'text'
p335
I172
tp336
a(S'really'
p337
I171
tp338
a(S'between'
p339
I170
tp340
a(S'both'
p341
I170
tp342
a(S'net'
p343
I170
tp344
a(S'buy'
p345
I169
tp346
a(S'plan'
p347
I167
tp348
a(S'success'
p349
I167
tp350
a(S'part'
p351
I166
tp352
a(S'request'
p353
I164
tp354
a(S'click'
p355
I164
tp356
a(S'simply'
p357
I164
tp358
a(S'instruction'
p359
I164
tp360
a(S'move'
p361
I164
tp362
a(S'package'
p363
I162
tp364
a(S'reply'
p365
I161
tp366
a(S'less'
p367
I160
tp368
a(S'ever'
p369
I160
tp370
a(S'point'
p371
I160
tp372
a(S'seem'
p373
I159
tp374
a(S'dollar'
p375
I158
tp376
a(S'discourse'
p377
I158
tp378
a(S'several'
p379
I158
tp380
a(S'method'
p381
I157
tp382
a(S'step'
p383
I157
tp384
a(S'win'
p385
I157
tp386
a(S'theory'
p387
I157
tp388
a(S'why'
p389
I157
tp390
a(S'simple'
p391
I156
tp392
a(S'student'
p393
I156
tp394
a(S'thousand'
p395
I155
tp396
a(S'put'
p397
I155
tp398
a(S'next'
p399
I154
tp400
a(S'ship'
p401
I154
tp402
a(S'friend'
p403
I154
tp404
a(S'important'
p405
I154
tp406
a(S'guarantee'
p407
I153
tp408
a(S'rate'
p409
I153
tp410
a(S'linguistics'
p411
I153
tp412
a(S'legal'
p413
I152
tp414
a(S'course'
p415
I150
tp416
a(S'note'
p417
I150
tp418
a(S'fact'
p419
I150
tp420
a(S'floodgate'
p421
I150
tp422
a(S'under'
p423
I148
tp424
a(S'talk'
p425
I147
tp426
a(S'account'
p427
I147
tp428
a(S'allow'
p429
I146
tp430
a(S'return'
p431
I146
tp432
a(S'since'
p433
I146
tp434
a(S'until'
p435
I145
tp436
a(S'american'
p437
I145
tp438
a(S'keep'
p439
I145
tp440
a(S'position'
p441
I145
tp442
a(S'school'
p443
I145
tp444
a(S'result'
p445
I144
tp446
a(S'ad'
p447
I143
tp448
a(S'experience'
p449
I143
tp450
a(S'analysis'
p451
I143
tp452
a(S'present'
p453
I143
tp454
a(S'study'
p455
I142
tp456
a(S'remember'
p457
I142
tp458
a(S'reference'
p459
I142
tp460
a(S'another'
p461
I141
tp462
a(S'better'
p463
I141
tp464
a(S'sale'
p465
I141
tp466
a(S'person'
p467
I139
tp468
a(S'wish'
p469
I139
tp470
a(S'city'
p471
I139
tp472
a(S'speaker'
p473
I139
tp474
a(S'group'
p475
I139
tp476
a(S'believe'
p477
I139
tp478
a(S'problem'
p479
I139
tp480
a(S'bank'
p481
I138
tp482
a(S'leave'
p483
I136
tp484
a(S'full'
p485
I136
tp486
a(S'vium'
p487
I136
tp488
a(S'once'
p489
I136
tp490
a(S'section'
p491
I135
tp492
a(S'lot'
p493
I135
tp494
a(S'family'
p495
I135
tp496
a(S'answer'
p497
I135
tp498
a(S'print'
p499
I135
tp500
a(S'complete'
p501
I134
tp502
a(S'total'
p503
I134
tp504
a(S'area'
p505
I134
tp506
a(S'international'
p507
I134
tp508
a(S'georgetown'
p509
I134
tp510
a(S'plus'
p511
I134
tp512
a(S'date'
p513
I133
tp514
a(S'department'
p515
I133
tp516
a(S'grammar'
p517
I133
tp518
a(S'too'
p519
I133
tp520
a(S'second'
p521
I132
tp522
a(S'office'
p523
I132
tp524
a(S'lose'
p525
I132
tp526
a(S'future'
p527
I131
tp528
a(S'earn'
p529
I131
tp530
a(S'issue'
p531
I131
tp532
a(S'bill'
p533
I131
tp534
a(S'above'
p535
I130
tp536
a(S'while'
p537
I130
tp538
a(S'further'
p539
I129
tp540
a(S'long'
p541
I129
tp542
a(S'amount'
p543
I127
tp544
a(S'mean'
p545
I127
tp546
a(S'set'
p547
I126
tp548
a(S'ca'
p549
I126
tp550
a(S'join'
p551
I126
tp552
a(S'run'
p553
I125
tp554
a(S'purchase'
p555
I125
tp556
a(S'publish'
p557
I124
tp558
a(S'server'
p559
I124
tp560
a(S'possible'
p561
I123
tp562
a(S'become'
p563
I123
tp564
a(S'adult'
p565
I123
tp566
a(S'without'
p567
I123
tp568
a(S'nothing'
p569
I123
tp570
a(S'video'
p571
I122
tp572
a(S'real'
p573
I121
tp574
a(S'still'
p575
I121
tp576
a(S'accept'
p577
I120
tp578
a(S'base'
p579
I120
tp580
a(S'already'
p581
I120
tp582
a(S'something'
p583
I120
tp584
a(S'code'
p585
I119
tp586
a(S'sign'
p587
I118
tp588
a(S'uk'
p589
I118
tp590
a(S'game'
p591
I118
tp592
a(S'everyone'
p593
I118
tp594
a(S'registration'
p595
I118
tp596
a(S'support'
p597
I117
tp598
a(S'major'
p599
I117
tp600
a(S'personal'
p601
I117
tp602
a(S'understand'
p603
I116
tp604
a(S'fee'
p605
I116
tp606
a(S'someone'
p607
I115
tp608
a(S'however'
p609
I115
tp610
a(S'speech'
p611
I114
tp612
a(S'record'
p613
I114
tp614
a(S'small'
p615
I113
tp616
a(S'visit'
p617
I113
tp618
a(S'detail'
p619
I113
tp620
a(S'minute'
p621
I112
tp622
a(S'bonus'
p623
I112
tp624
a(S'mailing'
p625
I112
tp626
a(S'discussion'
p627
I111
tp628
a(S'decide'
p629
I110
tp630
a(S'able'
p631
I110
tp632
a(S'limit'
p633
I110
tp634
a(S'hear'
p635
I110
tp636
a(S'john'
p637
I109
tp638
a(S'human'
p639
I108
tp640
a(S'job'
p641
I108
tp642
a(S'guide'
p643
I107
tp644
a(S'hard'
p645
I107
tp646
a(S'child'
p647
I106
tp648
a(S'alway'
p649
I106
tp650
a(S'aol'
p651
I105
tp652
a(S'rule'
p653
I104
tp654
a(S'online'
p655
I104
tp656
a(S'begin'
p657
I104
tp658
a(S'exactly'
p659
I104
tp660
a(S'are'
p661
I104
tp662
a(S'tax'
p663
I104
tp664
a(S'past'
p665
I103
tp666
a(S'reason'
p667
I103
tp668
a(S'additional'
p669
I103
tp670
a(S'virtual'
p671
I103
tp672
a(S'secret'
p673
I103
tp674
a(S'open'
p675
I102
tp676
a(S'either'
p677
I102
tp678
a(S'papers'
p679
I102
tp680
a(S'speak'
p681
I101
tp682
a(S'actually'
p683
I101
tp684
a(S'general'
p685
I101
tp686
a(S'payment'
p687
I101
tp688
a(S'charge'
p689
I101
tp690
a(S'customer'
p691
I100
tp692
a(S'verb'
p693
I100
tp694
a(S'ye'
p695
I100
tp696
a(S'three'
p697
I100
tp698
a(S'investment'
p699
I99
tp700
a(S'teacher'
p701
I99
tp702
a(S'content'
p703
I99
tp704
a(S'application'
p705
I99
tp706
a(S'sound'
p707
I99
tp708
a(S'technology'
p709
I98
tp710
a(S'break'
p711
I98
tp712
a(S'access'
p713
I98
tp714
a(S'profit'
p715
I97
tp716
a(S'happen'
p717
I97
tp718
a(S'immediately'
p719
I97
tp720
a(S'fill'
p721
I97
tp722
a(S'anywhere'
p723
I97
tp724
a(S'pass'
p725
I96
tp726
a(S'structure'
p727
I96
tp728
a(S'washington'
p729
I96
tp730
a(S'usa'
p731
I96
tp732
a(S'choose'
p733
I96
tp734
a(S'ed'
p735
I95
tp736
a(S'knowledge'
p737
I95
tp738
a(S'though'
p739
I95
tp740
a(S'electronic'
p741
I94
tp742
a(S'true'
p743
I94
tp744
a(S'assume'
p745
I94
tp746
a(S'build'
p747
I94
tp748
a(S'html'
p749
I94
tp750
a(S'acquisition'
p751
I93
tp752
a(S'ac'
p753
I93
tp754
a(S'sex'
p755
I93
tp756
a(S'anything'
p757
I93
tp758
a(S'communication'
p759
I93
tp760
a(S'abstract'
p761
I93
tp762
a(S'feel'
p763
I93
tp764
a(S'wait'
p765
I92
tp766
a(S'direct'
p767
I92
tp768
a(S'consider'
p769
I91
tp770
a(S'topic'
p771
I91
tp772
a(S'yourself'
p773
I91
tp774
a(S'meet'
p775
I91
tp776
a(S'material'
p777
I91
tp778
a(S'hand'
p779
I90
tp780
a(S'contain'
p781
I90
tp782
a(S'old'
p783
I89
tp784
a(S'datum'
p785
I89
tp786
a(S'soon'
p787
I89
tp788
a(S'syntax'
p789
I89
tp790
a(S'manual'
p791
I89
tp792
a(S'end'
p793
I89
tp794
a(S'standard'
p795
I88
tp796
a(S'professional'
p797
I88
tp798
a(S'title'
p799
I88
tp800
a(S'generate'
p801
I88
tp802
a(S'single'
p803
I88
tp804
a(S'later'
p805
I87
tp806
a(S'postal'
p807
I87
tp808
a(S'science'
p809
I87
tp810
a(S'continue'
p811
I87
tp812
a(S'ago'
p813
I87
tp814
a(S'bring'
p815
I87
tp816
a(S'claim'
p817
I87
tp818
a(S'create'
p819
I87
tp820
a(S'away'
p821
I86
tp822
a(S'envelope'
p823
I86
tp824
a(S'national'
p825
I86
tp826
a(S'participant'
p827
I85
tp828
a(S'everything'
p829
I85
tp830
a(S'kind'
p831
I85
tp832
a(S'delete'
p833
I84
tp834
a(S'top'
p835
I84
tp836
a(S'feature'
p837
I83
tp838
a(S'hundred'
p839
I83
tp840
a(S'else'
p841
I83
tp842
a(S'matter'
p843
I83
tp844
a(S'links'
p845
I82
tp846
a(S'window'
p847
I81
tp848
a(S'stop'
p849
I81
tp850
a(S'march'
p851
I81
tp852
a(S'orders'
p853
I81
tp854
a(S'development'
p855
I81
tp856
a(S'center'
p857
I81
tp858
a(S'phonology'
p859
I81
tp860
a(S'currency'
p861
I80
tp862
a(S'natural'
p863
I80
tp864
a(S'involve'
p865
I80
tp866
a(S'share'
p867
I80
tp868
a(S'express'
p869
I80
tp870
a(S'mention'
p871
I80
tp872
a(S'telephone'
p873
I80
tp874
a(S'pp'
p875
I80
tp876
a(S'session'
p877
I79
tp878
a(S'german'
p879
I79
tp880
a(S'stealth'
p881
I79
tp882
a(S'source'
p883
I79
tp884
a(S'apply'
p885
I79
tp886
a(S'large'
p887
I78
tp888
a(S'action'
p889
I78
tp890
a(S'target'
p891
I78
tp892
a(S'test'
p893
I78
tp894
a(S'history'
p895
I78
tp896
a(S'ready'
p897
I78
tp898
a(S'yours'
p899
I78
tp900
a(S'idea'
p901
I78
tp902
a(S'far'
p903
I78
tp904
a(S'version'
p905
I78
tp906
a(S'country'
p907
I77
tp908
a(S'visa'
p909
I77
tp910
a(S'car'
p911
I77
tp912
a(S'dream'
p913
I77
tp914
a(S'watch'
p915
I77
tp916
a(S'approach'
p917
I77
tp918
a(S'advantage'
p919
I77
tp920
a(S'woman'
p921
I77
tp922
a(S'relate'
p923
I77
tp924
a(S'handle'
p925
I76
tp926
a(S'education'
p927
I76
tp928
a(S'tool'
p929
I76
tp930
a(S'figure'
p931
I76
tp932
a(S'view'
p933
I76
tp934
a(S'effort'
p935
I75
tp936
a(S'man'
p937
I75
tp938
a(S'risk'
p939
I75
tp940
a(S'construction'
p941
I74
tp942
a(S'chance'
p943
I74
tp944
a(S'chair'
p945
I74
tp946
a(S'russian'
p947
I74
tp948
a(S'potential'
p949
I74
tp950
a(S'spend'
p951
I74
tp952
a(S'reports'
p953
I73
tp954
a(S'debt'
p955
I73
tp956
a(S'hold'
p957
I73
tp958
a(S'whole'
p959
I73
tp960
a(S'zip'
p961
I73
tp962
a(S'high'
p963
I73
tp964
a(S'easily'
p965
I73
tp966
a(S'value'
p967
I73
tp968
a(S'current'
p969
I72
tp970
a(S'offshore'
p971
I72
tp972
a(S'dr'
p973
I72
tp974
a(S'extra'
p975
I72
tp976
a(S'prove'
p977
I72
tp978
a(S'download'
p979
I72
tp980
a(S'house'
p981
I72
tp982
a(S'organization'
p983
I72
tp984
a(S'turn'
p985
I72
tp986
a(S'press'
p987
I72
tp988
a(S'law'
p989
I71
tp990
a(S'mind'
p991
I71
tp992
a(S'capitalfm'
p993
I71
tp994
a(S'reach'
p995
I71
tp996
a(S'music'
p997
I70
tp998
a(S'drive'
p999
I70
tp1000
a(S'original'
p1001
I70
tp1002
a(S'always'
p1003
I70
tp1004
a(S'age'
p1005
I70
tp1006
a(S'field'
p1007
I70
tp1008
a(S'fun'
p1009
I70
tp1010
a(S'class'
p1011
I70
tp1012
a(S'collect'
p1013
I70
tp1014
a(S'society'
p1015
I69
tp1016
a(S'street'
p1017
I69
tp1018
a(S'review'
p1019
I69
tp1020
a(S'cut'
p1021
I68
tp1022
a(S'security'
p1023
I68
tp1024
a(S'discover'
p1025
I68
tp1026
a(S'almost'
p1027
I68
tp1028
a(S'enter'
p1029
I68
tp1030
a(S'story'
p1031
I68
tp1032
a(S'york'
p1033
I68
tp1034
a(S'publication'
p1035
I68
tp1036
a(S'effective'
p1037
I67
tp1038
a(S'millions'
p1039
I67
tp1040
a(S'advertisement'
p1041
I67
tp1042
a(S'engine'
p1043
I67
tp1044
a(S'select'
p1045
I67
tp1046
a(S'format'
p1047
I67
tp1048
a(S'pronoun'
p1049
I67
tp1050
a(S'probably'
p1051
I67
tp1052
a(S'enclose'
p1053
I67
tp1054
a(S'against'
p1055
I67
tp1056
a(S'dear'
p1057
I67
tp1058
a(S'around'
p1059
I67
tp1060
a(S'dialect'
p1061
I67
tp1062
a(S'social'
p1063
I67
tp1064
a(S'term'
p1065
I67
tp1066
a(S'successful'
p1067
I66
tp1068
a(S'respond'
p1069
I66
tp1070
a(S'st'
p1071
I66
tp1072
a(S'power'
p1073
I66
tp1074
a(S'doubt'
p1075
I66
tp1076
a(S'hope'
p1077
I66
tp1078
a(S'means'
p1079
I66
tp1080
a(S'individual'
p1081
I66
tp1082
a(S'la'
p1083
I66
tp1084
a(S'ny'
p1085
I66
tp1086
a(S'rest'
p1087
I65
tp1088
a(S'user'
p1089
I65
tp1090
a(S'completely'
p1091
I65
tp1092
a(S'room'
p1093
I65
tp1094
a(S'vowel'
p1095
I65
tp1096
a(S'various'
p1097
I65
tp1098
a(S'travel'
p1099
I64
tp1100
a(S'along'
p1101
I64
tp1102
a(S'inc'
p1103
I64
tp1104
a(S'directly'
p1105
I64
tp1106
a(S'yet'
p1107
I64
tp1108
a(S'big'
p1109
I64
tp1110
a(S'whether'
p1111
I64
tp1112
a(S'sales'
p1113
I63
tp1114
a(S'sentence'
p1115
I63
tp1116
a(S'deal'
p1117
I63
tp1118
a(S'foreign'
p1119
I63
tp1120
a(S'native'
p1121
I63
tp1122
a(S'rather'
p1123
I63
tp1124
a(S'quite'
p1125
I62
tp1126
a(S'mass'
p1127
I62
tp1128
a(S'register'
p1129
I62
tp1130
a(S'connection'
p1131
I62
tp1132
a(S'together'
p1133
I62
tp1134
a(S'appear'
p1135
I62
tp1136
a(S'increase'
p1137
I62
tp1138
a(S'finally'
p1139
I62
tp1140
a(S'institute'
p1141
I62
tp1142
a(S'shor'
p1143
I62
tp1144
a(S'train'
p1145
I62
tp1146
a(S'comment'
p1147
I62
tp1148
a(S'goal'
p1149
I62
tp1150
a(S'short'
p1151
I62
tp1152
a(S'david'
p1153
I61
tp1154
a(S'produce'
p1155
I61
tp1156
a(S'id'
p1157
I61
tp1158
a(S'enough'
p1159
I61
tp1160
a(S'phonetic'
p1161
I61
tp1162
a(S'object'
p1163
I60
tp1164
a(S'resource'
p1165
I60
tp1166
a(S'certain'
p1167
I60
tp1168
a(S'vol'
p1169
I60
tp1170
a(S'raise'
p1171
I60
tp1172
a(S'invite'
p1173
I60
tp1174
a(S'miss'
p1175
I60
tp1176
a(S'rich'
p1177
I59
tp1178
a(S'huge'
p1179
I59
tp1180
a(S'main'
p1181
I59
tp1182
a(S'summary'
p1183
I59
tp1184
a(S'payable'
p1185
I59
tp1186
a(S'design'
p1187
I59
tp1188
a(S'expect'
p1189
I59
tp1190
a(S'freedom'
p1191
I59
tp1192
a(S'japanese'
p1193
I58
tp1194
a(S'develop'
p1195
I58
tp1196
a(S'phenomenon'
p1197
I58
tp1198
a(S'circular'
p1199
I58
tp1200
a(S'quality'
p1201
I58
tp1202
a(S'website'
p1203
I58
tp1204
a(S'french'
p1205
I58
tp1206
a(S'chinese'
p1207
I58
tp1208
a(S'capital'
p1209
I58
tp1210
a(S'play'
p1211
I57
tp1212
a(S'mastercard'
p1213
I57
tp1214
a(S'america'
p1215
I57
tp1216
a(S'semantic'
p1217
I57
tp1218
a(S'journal'
p1219
I57
tp1220
a(S'explain'
p1221
I57
tp1222
a(S'query'
p1223
I57
tp1224
a(S'entire'
p1225
I57
tp1226
a(S'perhap'
p1227
I57
tp1228
a(S'attention'
p1229
I57
tp1230
a(S'ability'
p1231
I57
tp1232
a(S'academic'
p1233
I56
tp1234
a(S'index'
p1235
I56
tp1236
a(S'domain'
p1237
I56
tp1238
a(S'happy'
p1239
I56
tp1240
a(S'multus'
p1241
I56
tp1242
a(S'culture'
p1243
I56
tp1244
a(S'control'
p1245
I56
tp1246
a(S'advance'
p1247
I56
tp1248
a(S'lead'
p1249
I56
tp1250
a(S'historical'
p1251
I55
tp1252
a(S'article'
p1253
I55
tp1254
a(S'low'
p1255
I55
tp1256
a(S'info'
p1257
I55
tp1258
a(S'don'
p1259
I55
tp1260
a(S'especially'
p1261
I55
tp1262
a(S'aspect'
p1263
I55
tp1264
a(S'difference'
p1265
I55
tp1266
a(S'associate'
p1267
I55
tp1268
a(S'dept'
p1269
I55
tp1270
a(S'federal'
p1271
I55
tp1272
a(S'model'
p1273
I55
tp1274
a(S'due'
p1275
I55
tp1276
a(S'po'
p1277
I55
tp1278
a(S'literature'
p1279
I55
tp1280
a(S'local'
p1281
I55
tp1282
a(S'reduplication'
p1283
I54
tp1284
a(S'master'
p1285
I54
tp1286
a(S'tm'
p1287
I54
tp1288
a(S'loan'
p1289
I54
tp1290
a(S'sexual'
p1291
I54
tp1292
a(S'digital'
p1293
I54
tp1294
a(S'mark'
p1295
I54
tp1296
a(S'mary'
p1297
I54
tp1298
a(S'public'
p1299
I54
tp1300
a(S'exchange'
p1301
I54
tp1302
a(S'specific'
p1303
I54
tp1304
a(S'six'
p1305
I54
tp1306
a(S'cover'
p1307
I53
tp1308
a(S'computational'
p1309
I53
tp1310
a(S'recruit'
p1311
I53
tp1312
a(S'close'
p1313
I53
tp1314
a(S'suite'
p1315
I53
tp1316
a(S'piece'
p1317
I53
tp1318
a(S'correct'
p1319
I53
tp1320
a(S'common'
p1321
I53
tp1322
a(S'latest'
p1323
I53
tp1324
a(S'filter'
p1325
I53
tp1326
a(S'author'
p1327
I53
tp1328
a(S'project'
p1329
I52
tp1330
a(S'european'
p1331
I52
tp1332
a(S'exist'
p1333
I52
tp1334
a(S'spanish'
p1335
I52
tp1336
a(S'recent'
p1337
I52
tp1338
a(S'fresh'
p1339
I52
tp1340
a(S'profitable'
p1341
I52
tp1342
a(S'seven'
p1343
I52
tp1344
a(S'kid'
p1345
I52
tp1346
a(S'track'
p1347
I52
tp1348
a(S'judgment'
p1349
I52
tp1350
a(S'mailer'
p1351
I52
tp1352
a(S'error'
p1353
I51
tp1354
a(S'january'
p1355
I51
tp1356
a(S'concern'
p1357
I51
tp1358
a(S'prepare'
p1359
I51
tp1360
a(S'often'
p1361
I51
tp1362
a(S'le'
p1363
I51
tp1364
a(S'invest'
p1365
I51
tp1366
a(S'deliver'
p1367
I51
tp1368
a(S'news'
p1369
I51
tp1370
a(S'sometime'
p1371
I51
tp1372
a(S'college'
p1373
I51
tp1374
a(S'provider'
p1375
I51
tp1376
a(S'hotel'
p1377
I51
tp1378
a(S'absolutely'
p1379
I51
tp1380
a(S'volume'
p1381
I51
tp1382
a(S'june'
p1383
I51
tp1384
a(S'love'
p1385
I50
tp1386
a(S'themselve'
p1387
I50
tp1388
a(S'government'
p1389
I50
tp1390
a(S'formal'
p1391
I50
tp1392
a(S'submit'
p1393
I50
tp1394
a(S'deat'
p1395
I50
tp1396
a(S'direction'
p1397
I50
tp1398
a(S'announcement'
p1399
I50
tp1400
a(S'locate'
p1401
I50
tp1402
a(S'grammatical'
p1403
I49
tp1404
a(S'hot'
p1405
I49
tp1406
a(S'indicate'
p1407
I49
tp1408
a(S'qualify'
p1409
I49
tp1410
a(S'mlm'
p1411
I49
tp1412
a(S'couple'
p1413
I49
tp1414
a(S'discuss'
p1415
I49
tp1416
a(S'speed'
p1417
I49
tp1418
a(S'compuserve'
p1419
I49
tp1420
a(S'committee'
p1421
I49
tp1422
a(S'database'
p1423
I49
tp1424
a(S'century'
p1425
I49
tp1426
a(S'cognitive'
p1427
I49
tp1428
a(S'enjoy'
p1429
I49
tp1430
a(S'population'
p1431
I49
tp1432
a(S'hit'
p1433
I49
tp1434
a(S'dori'
p1435
I48
tp1436
a(S'situation'
p1437
I48
tp1438
a(S'refer'
p1439
I48
tp1440
a(S'imagine'
p1441
I48
tp1442
a(S'technical'
p1443
I48
tp1444
a(S'worldwide'
p1445
I48
tp1446
a(S'upon'
p1447
I48
tp1448
a(S'pragmatic'
p1449
I48
tp1450
a(S'californium'
p1451
I48
tp1452
a(S'update'
p1453
I48
tp1454
a(S'club'
p1455
I48
tp1456
a(S'half'
p1457
I48
tp1458
a(S'third'
p1459
I48
tp1460
a(S'grow'
p1461
I48
tp1462
a(S'fast'
p1463
I48
tp1464
a(S'powerful'
p1465
I48
tp1466
a(S'goldrush'
p1467
I48
tp1468
a(S'particle'
p1469
I48
tp1470
a(S'intelligence'
p1471
I48
tp1472
a(S'category'
p1473
I48
tp1474
a(S'agree'
p1475
I47
tp1476
a(S'htm'
p1477
I47
tp1478
a(S'hr'
p1479
I47
tp1480
a(S'modern'
p1481
I47
tp1482
a(S'distinction'
p1483
I47
tp1484
a(S'morphology'
p1485
I47
tp1486
a(S'suggest'
p1487
I47
tp1488
a(S'discount'
p1489
I47
tp1490
a(S'wide'
p1491
I47
tp1492
a(S'myself'
p1493
I47
tp1494
a(S'context'
p1495
I47
tp1496
a(S'sort'
p1497
I47
tp1498
a(S'syntactic'
p1499
I46
tp1500
a(S'pick'
p1501
I46
tp1502
a(S'length'
p1503
I46
tp1504
a(S'excite'
p1505
I46
tp1506
a(S'cannot'
p1507
I46
tp1508
a(S'phrase'
p1509
I46
tp1510
a(S'clear'
p1511
I46
tp1512
a(S'submission'
p1513
I46
tp1514
a(S'isp'
p1515
I46
tp1516
a(S'girl'
p1517
I46
tp1518
a(S'longer'
p1519
I46
tp1520
a(S'tel'
p1521
I46
tp1522
a(S'recently'
p1523
I46
tp1524
a(S'toll'
p1525
I45
tp1526
a(S'sincerely'
p1527
I45
tp1528
a(S'early'
p1529
I45
tp1530
a(S'benefit'
p1531
I45
tp1532
a(S'similar'
p1533
I45
tp1534
a(S'boyfriend'
p1535
I45
tp1536
a(S'signature'
p1537
I45
tp1538
a(S'principle'
p1539
I45
tp1540
a(S'basis'
p1541
I45
tp1542
a(S'wonder'
p1543
I45
tp1544
a(S'particular'
p1545
I45
tp1546
a(S'works'
p1547
I45
tp1548
a(S'respondent'
p1549
I45
tp1550
a(S'unite'
p1551
I45
tp1552
a(S'ems'
p1553
I44
tp1554
a(S'five'
p1555
I44
tp1556
a(S'delivery'
p1557
I44
tp1558
a(S'yes'
p1559
I44
tp1560
a(S'space'
p1561
I44
tp1562
a(S'sheet'
p1563
I44
tp1564
a(S'using'
p1565
I44
tp1566
a(S'perfectly'
p1567
I44
tp1568
a(S'lunch'
p1569
I44
tp1570
a(S'relative'
p1571
I44
tp1572
a(S'road'
p1573
I44
tp1574
a(S'forward'
p1575
I44
tp1576
a(S'tense'
p1577
I44
tp1578
a(S'partner'
p1579
I44
tp1580
a(S'quickly'
p1581
I44
tp1582
a(S'period'
p1583
I44
tp1584
a(S'instead'
p1585
I44
tp1586
a(S'july'
p1587
I44
tp1588
a(S'luck'
p1589
I43
tp1590
a(S'propose'
p1591
I43
tp1592
a(S'reduce'
p1593
I43
tp1594
a(S'worth'
p1595
I43
tp1596
a(S'chechen'
p1597
I43
tp1598
a(S'evidence'
p1599
I43
tp1600
a(S'non'
p1601
I43
tp1602
a(S'lexical'
p1603
I43
tp1604
a(S'membership'
p1605
I43
tp1606
a(S'candidate'
p1607
I43
tp1608
a(S'initial'
p1609
I43
tp1610
a(S'sample'
p1611
I43
tp1612
a(S'movement'
p1613
I43
tp1614
a(S'der'
p1615
I43
tp1616
a(S'private'
p1617
I43
tp1618
a(S'february'
p1619
I43
tp1620
a(S'quick'
p1621
I43
tp1622
a(S'outside'
p1623
I43
tp1624
a(S'postage'
p1625
I43
tp1626
a(S'campaign'
p1627
I42
tp1628
a(S'industry'
p1629
I42
tp1630
a(S'beautiful'
p1631
I42
tp1632
a(S'duplicate'
p1633
I42
tp1634
a(S'comparison'
p1635
I42
tp1636
a(S'chain'
p1637
I42
tp1638
a(S'commercial'
p1639
I42
tp1640
a(S'cent'
p1641
I42
tp1642
a(S'deaf'
p1643
I42
tp1644
a(S'canada'
p1645
I42
tp1646
a(S'workshop'
p1647
I42
tp1648
a(S'forget'
p1649
I42
tp1650
a(S'celebrity'
p1651
I42
tp1652
a(S'legitimate'
p1653
I42
tp1654
a(S'practice'
p1655
I42
tp1656
a(S'act'
p1657
I41
tp1658
a(S'self'
p1659
I41
tp1660
a(S'paul'
p1661
I41
tp1662
a(S'phonological'
p1663
I41
tp1664
a(S'introduce'
p1665
I41
tp1666
a(S'truly'
p1667
I41
tp1668
a(S'inquiry'
p1669
I41
tp1670
a(S'effect'
p1671
I41
tp1672
a(S'rights'
p1673
I41
tp1674
a(S'technique'
p1675
I41
tp1676
a(S'shop'
p1677
I41
tp1678
a(S'frank'
p1679
I41
tp1680
a(S'actual'
p1681
I41
tp1682
a(S'corporation'
p1683
I41
tp1684
a(S'forum'
p1685
I41
tp1686
a(S'enterprise'
p1687
I41
tp1688
a(S'picture'
p1689
I41
tp1690
a(S'ok'
p1691
I41
tp1692
a(S'regard'
p1693
I41
tp1694
a(S'alter'
p1695
I41
tp1696
a(S'paradise'
p1697
I41
tp1698
a(S'amaze'
p1699
I41
tp1700
a(S'agency'
p1701
I41
tp1702
a(S'community'
p1703
I41
tp1704
a(S'replace'
p1705
I40
tp1706
a(S'unique'
p1707
I40
tp1708
a(S'alone'
p1709
I40
tp1710
a(S'theoretical'
p1711
I40
tp1712
a(S'monthly'
p1713
I40
tp1714
a(S'voice'
p1715
I40
tp1716
a(S'independent'
p1717
I40
tp1718
a(S'thanks'
p1719
I40
tp1720
a(S'global'
p1721
I40
tp1722
a(S'drop'
p1723
I40
tp1724
a(S'document'
p1725
I40
tp1726
a(S'quote'
p1727
I40
tp1728
a(S'universal'
p1729
I40
tp1730
a(S'org'
p1731
I40
tp1732
a(S'compare'
p1733
I40
tp1734
a(S'evaluation'
p1735
I40
tp1736
a(S'stock'
p1737
I40
tp1738
a(S'collection'
p1739
I40
tp1740
a(S'optional'
p1741
I40
tp1742
a(S'marketing'
p1743
I40
tp1744
a(S'presentation'
p1745
I40
tp1746
a(S'table'
p1747
I40
tp1748
a(S'organizer'
p1749
I39
tp1750
a(S'choice'
p1751
I39
tp1752
a(S'prefer'
p1753
I39
tp1754
a(S'au'
p1755
I39
tp1756
a(S'richard'
p1757
I39
tp1758
a(S'fund'
p1759
I39
tp1760
a(S'hello'
p1761
I39
tp1762
a(S'disk'
p1763
I39
tp1764
a(S'night'
p1765
I39
tp1766
a(S'automatically'
p1767
I39
tp1768
a(S'nor'
p1769
I39
tp1770
a(S'achieve'
p1771
I39
tp1772
a(S'treat'
p1773
I39
tp1774
a(S'operate'
p1775
I39
tp1776
a(S'artificial'
p1777
I39
tp1778
a(S'description'
p1779
I39
tp1780
a(S'girlfriend'
p1781
I39
tp1782
a(S'although'
p1783
I39
tp1784
a(S'september'
p1785
I39
tp1786
a(S'activity'
p1787
I39
tp1788
a(S'higher'
p1789
I39
tp1790
a(S'spam'
p1791
I38
tp1792
a(S'expression'
p1793
I38
tp1794
a(S'introduction'
p1795
I38
tp1796
a(S'tape'
p1797
I38
tp1798
a(S'beach'
p1799
I38
tp1800
a(S'graphic'
p1801
I38
tp1802
a(S'clean'
p1803
I38
tp1804
a(S'block'
p1805
I38
tp1806
a(S'url'
p1807
I38
tp1808
a(S'north'
p1809
I38
tp1810
a(S'depend'
p1811
I38
tp1812
a(S'maybe'
p1813
I38
tp1814
a(S'moment'
p1815
I38
tp1816
a(S'seminar'
p1817
I38
tp1818
a(S'retire'
p1819
I38
tp1820
a(S'except'
p1821
I38
tp1822
a(S'promise'
p1823
I38
tp1824
a(S'forever'
p1825
I37
tp1826
a(S'argument'
p1827
I37
tp1828
a(S'graduate'
p1829
I37
tp1830
a(S'co'
p1831
I37
tp1832
a(S'dc'
p1833
I37
tp1834
a(S'certainly'
p1835
I37
tp1836
a(S'sake'
p1837
I37
tp1838
a(S'benjamin'
p1839
I37
tp1840
a(S'hesitate'
p1841
I37
tp1842
a(S'final'
p1843
I37
tp1844
a(S'necessary'
p1845
I37
tp1846
a(S'daily'
p1847
I37
tp1848
a(S'across'
p1849
I37
tp1850
a(S'totally'
p1851
I37
tp1852
a(S'late'
p1853
I37
tp1854
a(S'insurance'
p1855
I37
tp1856
a(S'task'
p1857
I37
tp1858
a(S'rom'
p1859
I37
tp1860
a(S'focus'
p1861
I37
tp1862
a(S'mortgage'
p1863
I37
tp1864
a(S'color'
p1865
I37
tp1866
a(S'concept'
p1867
I37
tp1868
a(S'degree'
p1869
I37
tp1870
a(S'proof'
p1871
I37
tp1872
a(S'relax'
p1873
I37
tp1874
a(S'conversation'
p1875
I37
tp1876
a(S'eliminate'
p1877
I36
tp1878
a(S'clause'
p1879
I36
tp1880
a(S'resell'
p1881
I36
tp1882
a(S'prompt'
p1883
I36
tp1884
a(S'sense'
p1885
I36
tp1886
a(S'relationship'
p1887
I36
tp1888
a(S'competition'
p1889
I36
tp1890
a(S'ingush'
p1891
I36
tp1892
a(S'symbol'
p1893
I36
tp1894
a(S'highly'
p1895
I36
tp1896
a(S'air'
p1897
I36
tp1898
a(S'trade'
p1899
I36
tp1900
a(S'cc'
p1901
I36
tp1902
a(S'describe'
p1903
I36
tp1904
a(S'deadline'
p1905
I36
tp1906
a(S'whatever'
p1907
I36
tp1908
a(S'header'
p1909
I36
tp1910
a(S'obviously'
p1911
I36
tp1912
a(S'michael'
p1913
I36
tp1914
a(S'addresses'
p1915
I36
tp1916
a(S'addition'
p1917
I36
tp1918
a(S'background'
p1919
I36
tp1920
a(S'editor'
p1921
I36
tp1922
a(S'south'
p1923
I36
tp1924
a(S'interpretation'
p1925
I36
tp1926
a(S'client'
p1927
I36
tp1928
a(S'refund'
p1929
I36
tp1930
a(S'guvax'
p1931
I36
tp1932
a(S'succeed'
p1933
I36
tp1934
a(S'pc'
p1935
I36
tp1936
a(S'extremely'
p1937
I36
tp1938
a(S'classify'
p1939
I35
tp1940
a(S'release'
p1941
I35
tp1942
a(S'bottom'
p1943
I35
tp1944
a(S'ipa'
p1945
I35
tp1946
a(S'edinburgh'
p1947
I35
tp1948
a(S'element'
p1949
I35
tp1950
a(S'germany'
p1951
I35
tp1952
a(S'participation'
p1953
I35
tp1954
a(S'undeliverable'
p1955
I35
tp1956
a(S'december'
p1957
I35
tp1958
a(S'semantics'
p1959
I35
tp1960
a(S'toward'
p1961
I35
tp1962
a(S'stem'
p1963
I35
tp1964
a(S'regular'
p1965
I35
tp1966
a(S'item'
p1967
I35
tp1968
a(S'accurately'
p1969
I35
tp1970
a(S'london'
p1971
I35
tp1972
a(S'among'
p1973
I35
tp1974
a(S'inform'
p1975
I35
tp1976
a(S'multiple'
p1977
I35
tp1978
a(S'separate'
p1979
I35
tp1980
a(S'synthetic'
p1981
I35
tp1982
a(S'ten'
p1983
I35
tp1984
a(S'obtain'
p1985
I35
tp1986
a(S'transfer'
p1987
I35
tp1988
a(S'series'
p1989
I34
tp1990
a(S'afford'
p1991
I34
tp1992
a(S'fig'
p1993
I34
tp1994
a(S'summer'
p1995
I34
tp1996
a(S'movie'
p1997
I34
tp1998
a(S'currently'
p1999
I34
tp2000
a(S'agreement'
p2001
I34
tp2002
a(S'hottest'
p2003
I34
tp2004
a(S'function'
p2005
I34
tp2006
a(S'network'
p2007
I34
tp2008
a(S'organize'
p2009
I34
tp2010
a(S'guy'
p2011
I34
tp2012
a(S'usually'
p2013
I34
tp2014
a(S'ibm'
p2015
I34
tp2016
a(S'valuable'
p2017
I34
tp2018
a(S'translation'
p2019
I34
tp2020
a(S'gender'
p2021
I34
tp2022
a(S'skill'
p2023
I34
tp2024
a(S'peter'
p2025
I34
tp2026
a(S'whose'
p2027
I34
tp2028
a(S'sorry'
p2029
I34
tp2030
a(S'extract'
p2031
I34
tp2032
a(S'suggestion'
p2033
I34
tp2034
a(S'establish'
p2035
I34
tp2036
a(S'eye'
p2037
I34
tp2038
a(S'excellent'
p2039
I34
tp2040
a(S'xxx'
p2041
I34
tp2042
a(S'cultural'
p2043
I34
tp2044
a(S'head'
p2045
I34
tp2046
a(S'determine'
p2047
I34
tp2048
a(S'susan'
p2049
I34
tp2050
a(S'traditional'
p2051
I34
tp2052
a(S'ignore'
p2053
I34
tp2054
a(S'range'
p2055
I34
tp2056
a(S'nice'
p2057
I34
tp2058
a(S'plural'
p2059
I34
tp2060
a(S'centre'
p2061
I34
tp2062
a(S'sequence'
p2063
I34
tp2064
a(S'nature'
p2065
I33
tp2066
a(S'comparative'
p2067
I33
tp2068
a(S'fully'
p2069
I33
tp2070
a(S'front'
p2071
I33
tp2072
a(S'deposit'
p2073
I33
tp2074
a(S'key'
p2075
I33
tp2076
a(S'star'
p2077
I33
tp2078
a(S'doe'
p2079
I33
tp2080
a(S'unlimit'
p2081
I33
tp2082
a(S'useful'
p2083
I33
tp2084
a(S'dutch'
p2085
I33
tp2086
a(S'carry'
p2087
I33
tp2088
a(S'relevant'
p2089
I33
tp2090
a(S'radio'
p2091
I33
tp2092
a(S'itself'
p2093
I33
tp2094
a(S'exclusive'
p2095
I33
tp2096
a(S'origin'
p2097
I33
tp2098
a(S'style'
p2099
I33
tp2100
a(S'newsletter'
p2101
I33
tp2102
a(S'employment'
p2103
I33
tp2104
a(S'thus'
p2105
I33
tp2106
a(S'team'
p2107
I32
tp2108
a(S'vacation'
p2109
I32
tp2110
a(S'weekly'
p2111
I32
tp2112
a(S'stuff'
p2113
I32
tp2114
a(S'verify'
p2115
I32
tp2116
a(S'welcome'
p2117
I32
tp2118
a(S'trial'
p2119
I32
tp2120
a(S'magazine'
p2121
I32
tp2122
a(S'care'
p2123
I32
tp2124
a(S'role'
p2125
I32
tp2126
a(S'roll'
p2127
I32
tp2128
a(S'billion'
p2129
I32
tp2130
a(S'substantial'
p2131
I32
tp2132
a(S'brand'
p2133
I32
tp2134
a(S'correctly'
p2135
I32
tp2136
a(S'maintain'
p2137
I32
tp2138
a(S'african'
p2139
I32
tp2140
a(S'association'
p2141
I32
tp2142
a(S'relation'
p2143
I32
tp2144
a(S'usd'
p2145
I32
tp2146
a(S'hair'
p2147
I32
tp2148
a(S'greatest'
p2149
I32
tp2150
a(S'double'
p2151
I32
tp2152
a(S'ave'
p2153
I32
tp2154
a(S'purpose'
p2155
I31
tp2156
a(S'pro'
p2157
I31
tp2158
a(S'desire'
p2159
I31
tp2160
a(S'faster'
p2161
I31
tp2162
a(S'am'
p2163
I31
tp2164
a(S'sender'
p2165
I31
tp2166
a(S'location'
p2167
I31
tp2168
a(S'ling'
p2169
I31
tp2170
a(S'surely'
p2171
I31
tp2172
a(S'edition'
p2173
I31
tp2174
a(S'programs'
p2175
I31
tp2176
a(S'acquire'
p2177
I31
tp2178
a(S'bitnet'
p2179
I31
tp2180
a(S'humor'
p2181
I31
tp2182
a(S'promotion'
p2183
I31
tp2184
a(S'mandarin'
p2185
I31
tp2186
a(S'fortune'
p2187
I31
tp2188
a(S'stanford'
p2189
I31
tp2190
a(S'excess'
p2191
I31
tp2192
a(S'cause'
p2193
I31
tp2194
a(S'guaranteed'
p2195
I31
tp2196
a(S'asset'
p2197
I31
tp2198
a(S'perspective'
p2199
I31
tp2200
a(S'annual'
p2201
I31
tp2202
a(S'bid'
p2203
I31
tp2204
a(S'philosophy'
p2205
I31
tp2206
a(S'texa'
p2207
I31
tp2208
a(S'match'
p2209
I31
tp2210
a(S'md'
p2211
I31
tp2212
a(S'intercultural'
p2213
I31
tp2214
a(S'instructions'
p2215
I31
tp2216
a(S'demonstrate'
p2217
I31
tp2218
a(S'paste'
p2219
I30
tp2220
a(S'wrong'
p2221
I30
tp2222
a(S'theme'
p2223
I30
tp2224
a(S'gruyter'
p2225
I30
tp2226
a(S'contrast'
p2227
I30
tp2228
a(S'ftp'
p2229
I30
tp2230
a(S'guideline'
p2231
I30
tp2232
a(S'clearly'
p2233
I30
tp2234
a(S'avoid'
p2235
I30
tp2236
a(S'gls'
p2237
I30
tp2238
a(S'negative'
p2239
I30
tp2240
a(S'greek'
p2241
I30
tp2242
a(S'classified'
p2243
I30
tp2244
a(S'economy'
p2245
I30
tp2246
a(S'indeed'
p2247
I30
tp2248
a(S'et'
p2249
I30
tp2250
a(S'intend'
p2251
I30
tp2252
a(S'dissertation'
p2253
I30
tp2254
a(S'event'
p2255
I30
tp2256
a(S'william'
p2257
I30
tp2258
a(S'austin'
p2259
I30
tp2260
a(S'newsgroup'
p2261
I30
tp2262
a(S'seek'
p2263
I30
tp2264
a(S'contribution'
p2265
I30
tp2266
a(S'basic'
p2267
I30
tp2268
a(S'did'
p2269
I30
tp2270
a(S'den'
p2271
I30
tp2272
a(S'mailbox'
p2273
I30
tp2274
a(S'arabic'
p2275
I30
tp2276
a(S'accessible'
p2277
I30
tp2278
a(S'proper'
p2279
I30
tp2280
a(S'represent'
p2281
I30
tp2282
a(S'mi'
p2283
I30
tp2284
a(S'mr'
p2285
I30
tp2286
a(S'saturday'
p2287
I30
tp2288
a(S'representation'
p2289
I30
tp2290
a(S'pre'
p2291
I30
tp2292
a(S'respect'
p2293
I30
tp2294
a(S'sociolinguistic'
p2295
I30
tp2296
a(S'pm'
p2297
I30
tp2298
a(S'cloth'
p2299
I30
tp2300
a(S'narrative'
p2301
I30
tp2302
a(S'usage'
p2303
I30
tp2304
a(S'machine'
p2305
I29
tp2306
a(S'financially'
p2307
I29
tp2308
a(S'sponsor'
p2309
I29
tp2310
a(S'prior'
p2311
I29
tp2312
a(S'combine'
p2313
I29
tp2314
a(S'password'
p2315
I29
tp2316
a(S'affiliation'
p2317
I29
tp2318
a(S'overnight'
p2319
I29
tp2320
a(S'during'
p2321
I29
tp2322
a(S'minimal'
p2323
I29
tp2324
a(S'distribution'
p2325
I29
tp2326
a(S'compatible'
p2327
I29
tp2328
a(S'plenary'
p2329
I29
tp2330
a(S'force'
p2331
I29
tp2332
a(S'near'
p2333
I29
tp2334
a(S'il'
p2335
I29
tp2336
a(S'boy'
p2337
I29
tp2338
a(S'arrive'
p2339
I29
tp2340
a(S'everyday'
p2341
I29
tp2342
a(S'publisher'
p2343
I29
tp2344
a(S'statement'
p2345
I29
tp2346
a(S'throughout'
p2347
I29
tp2348
a(S'pattern'
p2349
I29
tp2350
a(S'tip'
p2351
I29
tp2352
a(S'serious'
p2353
I29
tp2354
a(S'art'
p2355
I29
tp2356
a(S'edit'
p2357
I29
tp2358
a(S'dictionary'
p2359
I29
tp2360
a(S'hypothesis'
p2361
I29
tp2362
a(S'owe'
p2363
I29
tp2364
a(S'image'
p2365
I28
tp2366
a(S'alba'
p2367
I28
tp2368
a(S'relevance'
p2369
I28
tp2370
a(S'influence'
p2371
I28
tp2372
a(S'slip'
p2373
I28
tp2374
a(S'lucky'
p2375
I28
tp2376
a(S'wealth'
p2377
I28
tp2378
a(S'count'
p2379
I28
tp2380
a(S'coffee'
p2381
I28
tp2382
a(S'basically'
p2383
I28
tp2384
a(S'occur'
p2385
I28
tp2386
a(S'throw'
p2387
I28
tp2388
a(S'href'
p2389
I28
tp2390
a(S'robert'
p2391
I28
tp2392
a(S'command'
p2393
I28
tp2394
a(S'martin'
p2395
I28
tp2396
a(S'stay'
p2397
I28
tp2398
a(S'fantastic'
p2399
I28
tp2400
a(S'san'
p2401
I28
tp2402
a(S'label'
p2403
I28
tp2404
a(S'fall'
p2405
I28
tp2406
a(S'services'
p2407
I28
tp2408
a(S'otherwise'
p2409
I28
tp2410
a(S'relatively'
p2411
I28
tp2412
a(S'earth'
p2413
I28
tp2414
a(S'announce'
p2415
I28
tp2416
a(S'accommodation'
p2417
I28
tp2418
a(S'communicate'
p2419
I28
tp2420
a(S'promote'
p2421
I28
tp2422
a(S'friday'
p2423
I28
tp2424
a(S'unit'
p2425
I27
tp2426
a(S'hi'
p2427
I27
tp2428
a(S'easier'
p2429
I27
tp2430
a(S'exact'
p2431
I27
tp2432
a(S'stress'
p2433
I27
tp2434
a(S'genie'
p2435
I27
tp2436
a(S'literary'
p2437
I27
tp2438
a(S'immediate'
p2439
I27
tp2440
a(S'gold'
p2441
I27
tp2442
a(S'animal'
p2443
I27
tp2444
a(S'perfect'
p2445
I27
tp2446
a(S'face'
p2447
I27
tp2448
a(S'ch'
p2449
I27
tp2450
a(S'waste'
p2451
I27
tp2452
a(S'identity'
p2453
I27
tp2454
a(S'marker'
p2455
I27
tp2456
a(S'valid'
p2457
I27
tp2458
a(S'strong'
p2459
I27
tp2460
a(S'scotland'
p2461
I27
tp2462
a(S'consonant'
p2463
I27
tp2464
a(S'popular'
p2465
I27
tp2466
a(S'practically'
p2467
I27
tp2468
a(S'indo'
p2469
I27
tp2470
a(S'berlin'
p2471
I27
tp2472
a(S'attempt'
p2473
I27
tp2474
a(S'side'
p2475
I27
tp2476
a(S'surprise'
p2477
I27
tp2478
a(S'suppose'
p2479
I27
tp2480
a(S'mexico'
p2481
I27
tp2482
a(S'super'
p2483
I27
tp2484
a(S'noun'
p2485
I27
tp2486
a(S'earlier'
p2487
I27
tp2488
a(S'town'
p2489
I27
tp2490
a(S'chat'
p2491
I27
tp2492
a(S'cable'
p2493
I27
tp2494
a(S'gov'
p2495
I27
tp2496
a(S'ram'
p2497
I27
tp2498
a(S'muc'
p2499
I27
tp2500
a(S'np'
p2501
I27
tp2502
a(S'song'
p2503
I27
tp2504
a(S'font'
p2505
I27
tp2506
a(S'strategy'
p2507
I27
tp2508
a(S'ph'
p2509
I27
tp2510
a(S'anybody'
p2511
I27
tp2512
a(S'gain'
p2513
I27
tp2514
a(S'encourage'
p2515
I26
tp2516
a(S'professor'
p2517
I26
tp2518
a(S'average'
p2519
I26
tp2520
a(S'borrow'
p2521
I26
tp2522
a(S'millionaire'
p2523
I26
tp2524
a(S'colleague'
p2525
I26
tp2526
a(S'status'
p2527
I26
tp2528
a(S'appropriate'
p2529
I26
tp2530
a(S'stage'
p2531
I26
tp2532
a(S'official'
p2533
I26
tp2534
a(S'appreciate'
p2535
I26
tp2536
a(S'spider'
p2537
I26
tp2538
a(S'macintosh'
p2539
I26
tp2540
a(S'florida'
p2541
I26
tp2542
a(S'management'
p2543
I26
tp2544
a(S'demo'
p2545
I26
tp2546
a(S'distance'
p2547
I26
tp2548
a(S'ii'
p2549
I26
tp2550
a(S'august'
p2551
I26
tp2552
a(S'middle'
p2553
I26
tp2554
a(S'unless'
p2555
I26
tp2556
a(S'plain'
p2557
I26
tp2558
a(S'creole'
p2559
I26
tp2560
a(S'latex'
p2561
I26
tp2562
a(S'store'
p2563
I26
tp2564
a(S'option'
p2565
I26
tp2566
a(S'political'
p2567
I26
tp2568
a(S'larger'
p2569
I26
tp2570
a(S'previous'
p2571
I25
tp2572
a(S'indigenous'
p2573
I25
tp2574
a(S'opposite'
p2575
I25
tp2576
a(S'charle'
p2577
I25
tp2578
a(S'november'
p2579
I25
tp2580
a(S'staggering'
p2581
I25
tp2582
a(S'opinion'
p2583
I25
tp2584
a(S'commission'
p2585
I25
tp2586
a(S'recognize'
p2587
I25
tp2588
a(S'cantonese'
p2589
I25
tp2590
a(S'production'
p2591
I25
tp2592
a(S'war'
p2593
I25
tp2594
a(S'indiana'
p2595
I25
tp2596
a(S'southern'
p2597
I25
tp2598
a(S'en'
p2599
I25
tp2600
a(S'fl'
p2601
I25
tp2602
a(S'reservation'
p2603
I25
tp2604
a(S'copyright'
p2605
I25
tp2606
a(S'variety'
p2607
I25
tp2608
a(S'eat'
p2609
I25
tp2610
a(S'mine'
p2611
I25
tp2612
a(S'mac'
p2613
I25
tp2614
a(S'normal'
p2615
I25
tp2616
a(S'africa'
p2617
I25
tp2618
a(S'particularly'
p2619
I25
tp2620
a(S'favourite'
p2621
I25
tp2622
a(S'lo'
p2623
I25
tp2624
a(S'mid'
p2625
I25
tp2626
a(S'fellow'
p2627
I25
tp2628
a(S'functional'
p2629
I25
tp2630
a(S'ms'
p2631
I25
tp2632
a(S'parallel'
p2633
I25
tp2634
a(S'subscriber'
p2635
I25
tp2636
a(S'wife'
p2637
I25
tp2638
a(S'programme'
p2639
I25
tp2640
a(S'smith'
p2641
I25
tp2642
a(S'bulletin'
p2643
I25
tp2644
a(S'holiday'
p2645
I25
tp2646
a(S'walk'
p2647
I25
tp2648
a(S'wednesday'
p2649
I24
tp2650
a(S'jame'
p2651
I24
tp2652
a(S'wrap'
p2653
I24
tp2654
a(S'derive'
p2655
I24
tp2656
a(S'possibility'
p2657
I24
tp2658
a(S'bite'
p2659
I24
tp2660
a(S'west'
p2661
I24
tp2662
a(S'rush'
p2663
I24
tp2664
a(S'ext'
p2665
I24
tp2666
a(S'race'
p2667
I24
tp2668
a(S'owner'
p2669
I24
tp2670
a(S'expiration'
p2671
I24
tp2672
a(S'protection'
p2673
I24
tp2674
a(S'ticket'
p2675
I24
tp2676
a(S'notion'
p2677
I24
tp2678
a(S'ez'
p2679
I24
tp2680
a(S'honest'
p2681
I24
tp2682
a(S'notice'
p2683
I24
tp2684
a(S'pretty'
p2685
I24
tp2686
a(S'camera'
p2687
I24
tp2688
a(S'bel'
p2689
I24
tp2690
a(S'party'
p2691
I24
tp2692
a(S'stamp'
p2693
I24
tp2694
a(S'comply'
p2695
I24
tp2696
a(S'johnson'
p2697
I24
tp2698
a(S'parent'
p2699
I24
tp2700
a(S'dial'
p2701
I24
tp2702
a(S'expensive'
p2703
I24
tp2704
a(S'bear'
p2705
I24
tp2706
a(S'remark'
p2707
I24
tp2708
a(S'lottery'
p2709
I24
tp2710
a(S'bind'
p2711
I24
tp2712
a(S'selection'
p2713
I24
tp2714
a(S'tremendous'
p2715
I24
tp2716
a(S'insert'
p2717
I24
tp2718
a(S'cartel'
p2719
I24
tp2720
a(S'western'
p2721
I24
tp2722
a(S'protect'
p2723
I24
tp2724
a(S'realistic'
p2725
I24
tp2726
a(S'lack'
p2727
I24
tp2728
a(S'amazing'
p2729
I24
tp2730
a(S'prof'
p2731
I24
tp2732
a(S'ape'
p2733
I24
tp2734
a(S'sit'
p2735
I24
tp2736
a(S'supply'
p2737
I24
tp2738
a(S'hall'
p2739
I24
tp2740
a(S'junk'
p2741
I24
tp2742
a(S'convince'
p2743
I23
tp2744
a(S'bankruptcy'
p2745
I23
tp2746
a(S'newspaper'
p2747
I23
tp2748
a(S'plans'
p2749
I23
tp2750
a(S'imply'
p2751
I23
tp2752
a(S'audio'
p2753
I23
tp2754
a(S'monday'
p2755
I23
tp2756
a(S'wa'
p2757
I23
tp2758
a(S'overview'
p2759
I23
tp2760
a(S'mouton'
p2761
I23
tp2762
a(S'license'
p2763
I23
tp2764
a(S'sources'
p2765
I23
tp2766
a(S'library'
p2767
I23
tp2768
a(S'recommend'
p2769
I23
tp2770
a(S'reader'
p2771
I23
tp2772
a(S'phonetics'
p2773
I23
tp2774
a(S'medical'
p2775
I23
tp2776
a(S'overt'
p2777
I23
tp2778
a(S'shift'
p2779
I23
tp2780
a(S'compile'
p2781
I23
tp2782
a(S'oral'
p2783
I23
tp2784
a(S'infoseek'
p2785
I23
tp2786
a(S'inexpensive'
p2787
I23
tp2788
a(S'minimum'
p2789
I23
tp2790
a(S'majority'
p2791
I23
tp2792
a(S'carefully'
p2793
I23
tp2794
a(S'decision'
p2795
I23
tp2796
a(S'random'
p2797
I23
tp2798
a(S'interaction'
p2799
I23
tp2800
a(S'explanation'
p2801
I23
tp2802
a(S'equal'
p2803
I23
tp2804
a(S'host'
p2805
I23
tp2806
a(S'psycholinguistic'
p2807
I23
tp2808
a(S'loader'
p2809
I23
tp2810
a(S'tom'
p2811
I23
tp2812
a(S'corpus'
p2813
I23
tp2814
a(S'serve'
p2815
I23
tp2816
a(S'lists'
p2817
I23
tp2818
a(S'complex'
p2819
I23
tp2820
a(S'classroom'
p2821
I23
tp2822
a(S'quit'
p2823
I23
tp2824
a(S'brief'
p2825
I23
tp2826
a(S'meaning'
p2827
I23
tp2828
a(S'europe'
p2829
I23
tp2830
a(S'requirement'
p2831
I23
tp2832
a(S'largest'
p2833
I23
tp2834
a(S'van'
p2835
I23
tp2836
a(S'therefore'
p2837
I22
tp2838
a(S'vanish'
p2839
I22
tp2840
a(S'instruct'
p2841
I22
tp2842
a(S'listen'
p2843
I22
tp2844
a(S'distribute'
p2845
I22
tp2846
a(S'subliminal'
p2847
I22
tp2848
a(S'easiest'
p2849
I22
tp2850
a(S'constraint'
p2851
I22
tp2852
a(S'se'
p2853
I22
tp2854
a(S'cite'
p2855
I22
tp2856
a(S'odd'
p2857
I22
tp2858
a(S'realize'
p2859
I22
tp2860
a(S'hobby'
p2861
I22
tp2862
a(S'schedule'
p2863
I22
tp2864
a(S'edward'
p2865
I22
tp2866
a(S'secure'
p2867
I22
tp2868
a(S'numbers'
p2869
I22
tp2870
a(S'germanic'
p2871
I22
tp2872
a(S'tone'
p2873
I22
tp2874
a(S'reality'
p2875
I22
tp2876
a(S'dollars'
p2877
I22
tp2878
a(S'british'
p2879
I22
tp2880
a(S'drug'
p2881
I22
tp2882
a(S'finish'
p2883
I22
tp2884
a(S'downline'
p2885
I22
tp2886
a(S'modify'
p2887
I22
tp2888
a(S'terminology'
p2889
I22
tp2890
a(S'marketer'
p2891
I22
tp2892
a(S'gamble'
p2893
I22
tp2894
a(S'instance'
p2895
I22
tp2896
a(S'loss'
p2897
I22
tp2898
a(S'utility'
p2899
I22
tp2900
a(S'accountant'
p2901
I22
tp2902
a(S'netherland'
p2903
I22
tp2904
a(S'hundreds'
p2905
I22
tp2906
a(S'ma'
p2907
I22
tp2908
a(S'canadian'
p2909
I22
tp2910
a(S'film'
p2911
I22
tp2912
a(S'distinct'
p2913
I22
tp2914
a(S'remain'
p2915
I22
tp2916
a(S'park'
p2917
I22
tp2918
a(S'shock'
p2919
I22
tp2920
a(S'mit'
p2921
I22
tp2922
a(S'boundary'
p2923
I22
tp2924
a(S'bus'
p2925
I22
tp2926
a(S'variation'
p2927
I22
tp2928
a(S'estate'
p2929
I22
tp2930
a(S'modem'
p2931
I22
tp2932
a(S'primary'
p2933
I22
tp2934
a(S'improve'
p2935
I22
tp2936
a(S'karen'
p2937
I22
tp2938
a(S'chapter'
p2939
I22
tp2940
a(S'everythe'
p2941
I22
tp2942
a(S'director'
p2943
I22
tp2944
a(S'compound'
p2945
I22
tp2946
a(S'avenue'
p2947
I22
tp2948
a(S'pa'
p2949
I22
tp2950
a(S'lower'
p2951
I22
tp2952
a(S'coordinator'
p2953
I22
tp2954
a(S'dramatically'
p2955
I22
tp2956
a(S'priority'
p2957
I22
tp2958
a(S'incredible'
p2959
I22
tp2960
a(S'meg'
p2961
I21
tp2962
a(S'scam'
p2963
I21
tp2964
a(S'upgrade'
p2965
I21
tp2966
a(S'recipient'
p2967
I21
tp2968
a(S'aside'
p2969
I21
tp2970
a(S'screen'
p2971
I21
tp2972
a(S'october'
p2973
I21
tp2974
a(S'tx'
p2975
I21
tp2976
a(S'factor'
p2977
I21
tp2978
a(S'acceptance'
p2979
I21
tp2980
a(S'lee'
p2981
I21
tp2982
a(S'engage'
p2983
I21
tp2984
a(S'russium'
p2985
I21
tp2986
a(S'greater'
p2987
I21
tp2988
a(S'bibliography'
p2989
I21
tp2990
a(S'perform'
p2991
I21
tp2992
a(S'portuguese'
p2993
I21
tp2994
a(S'satisfy'
p2995
I21
tp2996
a(S'typical'
p2997
I21
tp2998
a(S'television'
p2999
I21
tp3000
a(S'feminine'
p3001
I21
tp3002
a(S'progress'
p3003
I21
tp3004
a(S'weight'
p3005
I21
tp3006
a(S'poor'
p3007
I21
tp3008
a(S'foot'
p3009
I21
tp3010
a(S'weeks'
p3011
I21
tp3012
a(S'penny'
p3013
I21
tp3014
a(S'unlimited'
p3015
I21
tp3016
a(S'ban'
p3017
I21
tp3018
a(S'acceptable'
p3019
I21
tp3020
a(S'policy'
p3021
I21
tp3022
a(S'audience'
p3023
I21
tp3024
a(S'advice'
p3025
I21
tp3026
a(S'button'
p3027
I21
tp3028
a(S'dan'
p3029
I21
tp3030
a(S'staff'
p3031
I21
tp3032
a(S'interview'
p3033
I21
tp3034
a(S'instant'
p3035
I21
tp3036
a(S'expense'
p3037
I21
tp3038
a(S'est'
p3039
I21
tp3040
a(S'campus'
p3041
I21
tp3042
a(S'property'
p3043
I21
tp3044
a(S'die'
p3045
I21
tp3046
a(S'nlp'
p3047
I21
tp3048
a(S'contract'
p3049
I21
tp3050
a(S'utterance'
p3051
I21
tp3052
a(S'health'
p3053
I21
tp3054
a(S'pl'
p3055
I21
tp3056
a(S'attend'
p3057
I21
tp3058
a(S'isbn'
p3059
I21
tp3060
a(S'prospects'
p3061
I21
tp3062
a(S'size'
p3063
I20
tp3064
a(S'eastern'
p3065
I20
tp3066
a(S'telnet'
p3067
I20
tp3068
a(S'leiden'
p3069
I20
tp3070
a(S'condition'
p3071
I20
tp3072
a(S'uga'
p3073
I20
tp3074
a(S'progressive'
p3075
I20
tp3076
a(S'evaluating'
p3077
I20
tp3078
a(S'australium'
p3079
I20
tp3080
a(S'specifically'
p3081
I20
tp3082
a(S'install'
p3083
I20
tp3084
a(S'ordering'
p3085
I20
tp3086
a(S'buyer'
p3087
I20
tp3088
a(S'undergraduate'
p3089
I20
tp3090
a(S'genetic'
p3091
I20
tp3092
a(S'lay'
p3093
I20
tp3094
a(S'green'
p3095
I20
tp3096
a(S'reserve'
p3097
I20
tp3098
a(S'anonymous'
p3099
I20
tp3100
a(S'media'
p3101
I20
tp3102
a(S'tradition'
p3103
I20
tp3104
a(S'laugh'
p3105
I20
tp3106
a(S'conservative'
p3107
I20
tp3108
a(S'greatly'
p3109
I20
tp3110
a(S'webmaster'
p3111
I20
tp3112
a(S'gent'
p3113
I20
tp3114
a(S'attach'
p3115
I20
tp3116
a(S'bet'
p3117
I20
tp3118
a(S'employee'
p3119
I20
tp3120
a(S'previously'
p3121
I20
tp3122
a(S'convenience'
p3123
I20
tp3124
a(S'root'
p3125
I20
tp3126
a(S'draft'
p3127
I20
tp3128
a(S'und'
p3129
I20
tp3130
a(S'ie'
p3131
I20
tp3132
a(S'apology'
p3133
I20
tp3134
a(S'agent'
p3135
I20
tp3136
a(S'performance'
p3137
I20
tp3138
a(S'doctor'
p3139
I20
tp3140
a(S'assumption'
p3141
I20
tp3142
a(S'interactive'
p3143
I20
tp3144
a(S'discipline'
p3145
I20
tp3146
a(S'body'
p3147
I20
tp3148
a(S'suffix'
p3149
I20
tp3150
a(S'cheque'
p3151
I20
tp3152
a(S'supplies'
p3153
I20
tp3154
a(S'rank'
p3155
I20
tp3156
a(S'presence'
p3157
I20
tp3158
a(S'medium'
p3159
I20
tp3160
a(S'nl'
p3161
I20
tp3162
a(S'reveal'
p3163
I20
tp3164
a(S'cambridge'
p3165
I20
tp3166
a(S'berkeley'
p3167
I20
tp3168
a(S'court'
p3169
I20
tp3170
a(S'prodigy'
p3171
I20
tp3172
a(S'generation'
p3173
I20
tp3174
a(S'corporations'
p3175
I20
tp3176
a(S'advertiser'
p3177
I20
tp3178
a(S'gang'
p3179
I20
tp3180
a(S'crash'
p3181
I20
tp3182
a(S'institution'
p3183
I20
tp3184
a(S'difficult'
p3185
I20
tp3186
a(S'portion'
p3187
I20
tp3188
a(S'univ'
p3189
I19
tp3190
a(S'vary'
p3191
I19
tp3192
a(S'irs'
p3193
I19
tp3194
a(S'logic'
p3195
I19
tp3196
a(S'receipt'
p3197
I19
tp3198
a(S'morphological'
p3199
I19
tp3200
a(S'observe'
p3201
I19
tp3202
a(S'tv'
p3203
I19
tp3204
a(S'male'
p3205
I19
tp3206
a(S'guess'
p3207
I19
tp3208
a(S'pound'
p3209
I19
tp3210
a(S'bang'
p3211
I19
tp3212
a(S'young'
p3213
I19
tp3214
a(S'survey'
p3215
I19
tp3216
a(S'delphus'
p3217
I19
tp3218
a(S'manuscript'
p3219
I19
tp3220
a(S'competence'
p3221
I19
tp3222
a(S'conclude'
p3223
I19
tp3224
a(S'dave'
p3225
I19
tp3226
a(S'mistake'
p3227
I19
tp3228
a(S'pennsylvanium'
p3229
I19
tp3230
a(S'angele'
p3231
I19
tp3232
a(S'chimp'
p3233
I19
tp3234
a(S'obligation'
p3235
I19
tp3236
a(S'food'
p3237
I19
tp3238
a(S'touch'
p3239
I19
tp3240
a(S'grant'
p3241
I19
tp3242
a(S'faith'
p3243
I19
tp3244
a(S'manage'
p3245
I19
tp3246
a(S'hardcore'
p3247
I19
tp3248
a(S'competitor'
p3249
I19
tp3250
a(S'likely'
p3251
I19
tp3252
a(S'warn'
p3253
I19
tp3254
a(S'definitely'
p3255
I19
tp3256
a(S'markedness'
p3257
I19
tp3258
a(S'curriculum'
p3259
I19
tp3260
a(S'existence'
p3261
I19
tp3262
a(S'oxford'
p3263
I19
tp3264
a(S'fine'
p3265
I19
tp3266
a(S'meeting'
p3267
I19
tp3268
a(S'alternative'
p3269
I19
tp3270
a(S'iow'
p3271
I19
tp3272
a(S'whatsoever'
p3273
I19
tp3274
a(S'researcher'
p3275
I19
tp3276
a(S'orlando'
p3277
I19
tp3278
a(S'proceeding'
p3279
I19
tp3280
a(S'entrepreneur'
p3281
I19
tp3282
a(S'nt'
p3283
I19
tp3284
a(S'ann'
p3285
I19
tp3286
a(S'investigate'
p3287
I19
tp3288
a(S'numerous'
p3289
I19
tp3290
a(S'batch'
p3291
I19
tp3292
a(S'illinoi'
p3293
I19
tp3294
a(S'debate'
p3295
I19
tp3296
a(S'unlike'
p3297
I19
tp3298
a(S'growth'
p3299
I19
tp3300
a(S'fit'
p3301
I18
tp3302
a(S'tree'
p3303
I18
tp3304
a(S'east'
p3305
I18
tp3306
a(S'prevent'
p3307
I18
tp3308
a(S'cleanest'
p3309
I18
tp3310
a(S'sao'
p3311
I18
tp3312
a(S'enable'
p3313
I18
tp3314
a(S'hours'
p3315
I18
tp3316
a(S'operation'
p3317
I18
tp3318
a(S'virtually'
p3319
I18
tp3320
a(S'delay'
p3321
I18
tp3322
a(S'cgus'
p3323
I18
tp3324
a(S'executive'
p3325
I18
tp3326
a(S'contribute'
p3327
I18
tp3328
a(S'accord'
p3329
I18
tp3330
a(S'apparently'
p3331
I18
tp3332
a(S'brown'
p3333
I18
tp3334
a(S'correspondence'
p3335
I18
tp3336
a(S'pittsburgh'
p3337
I18
tp3338
a(S'objective'
p3339
I18
tp3340
a(S'amt'
p3341
I18
tp3342
a(S'demonstrative'
p3343
I18
tp3344
a(S'northern'
p3345
I18
tp3346
a(S'circle'
p3347
I18
tp3348
a(S'gu'
p3349
I18
tp3350
a(S'making'
p3351
I18
tp3352
a(S'transaction'
p3353
I18
tp3354
a(S'solution'
p3355
I18
tp3356
a(S'somewhat'
p3357
I18
tp3358
a(S'edge'
p3359
I18
tp3360
a(S'reconstruction'
p3361
I18
tp3362
a(S'tilburg'
p3363
I18
tp3364
a(S'amsterdam'
p3365
I18
tp3366
a(S'generally'
p3367
I18
tp3368
a(S'colloquial'
p3369
I18
tp3370
a(S'sunday'
p3371
I18
tp3372
a(S'outline'
p3373
I18
tp3374
a(S'limited'
p3375
I18
tp3376
a(S'black'
p3377
I18
tp3378
a(S'hotmail'
p3379
I18
tp3380
a(S'dec'
p3381
I18
tp3382
a(S'ray'
p3383
I18
tp3384
a(S'preference'
p3385
I18
tp3386
a(S'chomsky'
p3387
I18
tp3388
a(S'chicago'
p3389
I18
tp3390
a(S'correspond'
p3391
I18
tp3392
a(S'retail'
p3393
I18
tp3394
a(S'tome'
p3395
I18
tp3396
a(S'female'
p3397
I18
tp3398
a(S'bogus'
p3399
I18
tp3400
a(S'hide'
p3401
I18
tp3402
a(S'finger'
p3403
I18
tp3404
a(S'nc'
p3405
I18
tp3406
a(S'hundr'
p3407
I18
tp3408
a(S'cyber'
p3409
I18
tp3410
a(S'swedish'
p3411
I18
tp3412
a(S'engineer'
p3413
I18
tp3414
a(S'connect'
p3415
I18
tp3416
a(S'thursday'
p3417
I18
tp3418
a(S'overload'
p3419
I18
tp3420
a(S'tcw'
p3421
I18
tp3422
a(S'initially'
p3423
I18
tp3424
a(S'overlook'
p3425
I18
tp3426
a(S'essential'
p3427
I18
tp3428
a(S'consist'
p3429
I18
tp3430
a(S'buffalo'
p3431
I18
tp3432
a(S'gurt'
p3433
I18
tp3434
a(S'lifetime'
p3435
I18
tp3436
a(S'extractor'
p3437
I18
tp3438
a(S'april'
p3439
I18
tp3440
a(S'txt'
p3441
I17
tp3442
a(S'responsible'
p3443
I17
tp3444
a(S'unfortunately'
p3445
I17
tp3446
a(S'tcps'
p3447
I17
tp3448
a(S'sexually'
p3449
I17
tp3450
a(S'shors'
p3451
I17
tp3452
a(S'testimonial'
p3453
I17
tp3454
a(S'favorite'
p3455
I17
tp3456
a(S'al'
p3457
I17
tp3458
a(S'vocabulary'
p3459
I17
tp3460
a(S'introductory'
p3461
I17
tp3462
a(S'definition'
p3463
I17
tp3464
a(S'dfl'
p3465
I17
tp3466
a(S'internal'
p3467
I17
tp3468
a(S'affix'
p3469
I17
tp3470
a(S'load'
p3471
I17
tp3472
a(S'judicial'
p3473
I17
tp3474
a(S'spring'
p3475
I17
tp3476
a(S'linguistique'
p3477
I17
tp3478
a(S'sent'
p3479
I17
tp3480
a(S'consideration'
p3481
I17
tp3482
a(S'blvd'
p3483
I17
tp3484
a(S'singular'
p3485
I17
tp3486
a(S'deictic'
p3487
I17
tp3488
a(S'basque'
p3489
I17
tp3490
a(S'devote'
p3491
I17
tp3492
a(S'safe'
p3493
I17
tp3494
a(S'sun'
p3495
I17
tp3496
a(S'has'
p3497
I17
tp3498
a(S'ahead'
p3499
I17
tp3500
a(S'imc'
p3501
I17
tp3502
a(S'learner'
p3503
I17
tp3504
a(S'deborah'
p3505
I17
tp3506
a(S'fr'
p3507
I17
tp3508
a(S'scheme'
p3509
I17
tp3510
a(S'empty'
p3511
I17
tp3512
a(S'grand'
p3513
I17
tp3514
a(S'tech'
p3515
I17
tp3516
a(S'draw'
p3517
I17
tp3518
a(S'convert'
p3519
I17
tp3520
a(S'started'
p3521
I17
tp3522
a(S'attack'
p3523
I17
tp3524
a(S'personally'
p3525
I17
tp3526
a(S'conceal'
p3527
I17
tp3528
a(S'template'
p3529
I17
tp3530
a(S'everybody'
p3531
I17
tp3532
a(S'jackson'
p3533
I17
tp3534
a(S'channel'
p3535
I17
tp3536
a(S'pair'
p3537
I17
tp3538
a(S'jp'
p3539
I17
tp3540
a(S'marc'
p3541
I17
tp3542
a(S'extensive'
p3543
I17
tp3544
a(S'confirm'
p3545
I17
tp3546
a(S'paragraph'
p3547
I17
tp3548
a(S'creditor'
p3549
I17
tp3550
a(S'difficulty'
p3551
I17
tp3552
a(S'permission'
p3553
I17
tp3554
a(S'cluster'
p3555
I17
tp3556
a(S'pronunciation'
p3557
I17
tp3558
a(S'profile'
p3559
I17
tp3560
a(S'strip'
p3561
I17
tp3562
a(S'min'
p3563
I17
tp3564
a(S'prize'
p3565
I17
tp3566
a(S'ultimate'
p3567
I17
tp3568
a(S'thesis'
p3569
I17
tp3570
a(S'days'
p3571
I17
tp3572
a(S'erickson'
p3573
I17
tp3574
a(S'colloquium'
p3575
I17
tp3576
a(S'trust'
p3577
I17
tp3578
a(S'vii'
p3579
I17
tp3580
a(S'environment'
p3581
I17
tp3582
a(S'blank'
p3583
I17
tp3584
a(S'oversea'
p3585
I17
tp3586
a(S'demand'
p3587
I17
tp3588
a(S'advise'
p3589
I17
tp3590
a(S'steve'
p3591
I17
tp3592
a(S'repetition'
p3593
I17
tp3594
a(S'conclusion'
p3595
I17
tp3596
a(S'smtp'
p3597
I16
tp3598
a(S'symposium'
p3599
I16
tp3600
a(S'restriction'
p3601
I16
tp3602
a(S'vga'
p3603
I16
tp3604
a(S'shall'
p3605
I16
tp3606
a(S'golden'
p3607
I16
tp3608
a(S'ease'
p3609
I16
tp3610
a(S'possibly'
p3611
I16
tp3612
a(S'liar'
p3613
I16
tp3614
a(S'inside'
p3615
I16
tp3616
a(S'variable'
p3617
I16
tp3618
a(S'bf'
p3619
I16
tp3620
a(S'parameter'
p3621
I16
tp3622
a(S'assistant'
p3623
I16
tp3624
a(S'vision'
p3625
I16
tp3626
a(S'attitude'
p3627
I16
tp3628
a(S'tips'
p3629
I16
tp3630
a(S'representative'
p3631
I16
tp3632
a(S'snail'
p3633
I16
tp3634
a(S'pencil'
p3635
I16
tp3636
a(S'challenge'
p3637
I16
tp3638
a(S'literally'
p3639
I16
tp3640
a(S'browser'
p3641
I16
tp3642
a(S'eventually'
p3643
I16
tp3644
a(S'approximately'
p3645
I16
tp3646
a(S'jan'
p3647
I16
tp3648
a(S'reap'
p3649
I16
tp3650
a(S'verbal'
p3651
I16
tp3652
a(S'equivalent'
p3653
I16
tp3654
a(S'beyond'
p3655
I16
tp3656
a(S'scandinavian'
p3657
I16
tp3658
a(S'statistics'
p3659
I16
tp3660
a(S'prosodic'
p3661
I16
tp3662
a(S'tend'
p3663
I16
tp3664
a(S'monitor'
p3665
I16
tp3666
a(S'secrets'
p3667
I16
tp3668
a(S'kit'
p3669
I16
tp3670
a(S'character'
p3671
I16
tp3672
a(S'boss'
p3673
I16
tp3674
a(S'aware'
p3675
I16
tp3676
a(S'racer'
p3677
I16
tp3678
a(S'round'
p3679
I16
tp3680
a(S'bob'
p3681
I16
tp3682
a(S'reasonable'
p3683
I16
tp3684
a(S'practical'
p3685
I16
tp3686
a(S'coupon'
p3687
I16
tp3688
a(S'examine'
p3689
I16
tp3690
a(S'responsibility'
p3691
I16
tp3692
a(S'complement'
p3693
I16
tp3694
a(S'gay'
p3695
I16
tp3696
a(S'italy'
p3697
I16
tp3698
a(S'ren'
p3699
I16
tp3700
a(S'reg'
p3701
I16
tp3702
a(S'joke'
p3703
I16
tp3704
a(S'arizona'
p3705
I16
tp3706
a(S'broken'
p3707
I16
tp3708
a(S'jean'
p3709
I16
tp3710
a(S'specialize'
p3711
I16
tp3712
a(S'humanity'
p3713
I16
tp3714
a(S'successfully'
p3715
I16
tp3716
a(S'christmas'
p3717
I16
tp3718
a(S'phillip'
p3719
I16
tp3720
a(S'diurnal'
p3721
I16
tp3722
a(S'generative'
p3723
I16
tp3724
a(S'dordrecht'
p3725
I16
tp3726
a(S'andrew'
p3727
I16
tp3728
a(S'thousands'
p3729
I16
tp3730
a(S'extraordinary'
p3731
I16
tp3732
a(S'appeal'
p3733
I16
tp3734
a(S'latin'
p3735
I16
tp3736
a(S'village'
p3737
I16
tp3738
a(S'instructor'
p3739
I16
tp3740
a(S'light'
p3741
I16
tp3742
a(S'wall'
p3743
I16
tp3744
a(S'helpful'
p3745
I16
tp3746
a(S'preposition'
p3747
I16
tp3748
a(S'strike'
p3749
I15
tp3750
a(S'raleigh'
p3751
I15
tp3752
a(S'dozen'
p3753
I15
tp3754
a(S'fail'
p3755
I15
tp3756
a(S'extend'
p3757
I15
tp3758
a(S'breakfast'
p3759
I15
tp3760
a(S'intrusion'
p3761
I15
tp3762
a(S'textbook'
p3763
I15
tp3764
a(S'leed'
p3765
I15
tp3766
a(S'believer'
p3767
I15
tp3768
a(S'data'
p3769
I15
tp3770
a(S'applicant'
p3771
I15
tp3772
a(S'groningen'
p3773
I15
tp3774
a(S'roger'
p3775
I15
tp3776
a(S'linux'
p3777
I15
tp3778
a(S'ours'
p3779
I15
tp3780
a(S'door'
p3781
I15
tp3782
a(S'earnings'
p3783
I15
tp3784
a(S'england'
p3785
I15
tp3786
a(S'curious'
p3787
I15
tp3788
a(S'primarily'
p3789
I15
tp3790
a(S'stand'
p3791
I15
tp3792
a(S'retirement'
p3793
I15
tp3794
a(S'tracus'
p3795
I15
tp3796
a(S'innovative'
p3797
I15
tp3798
a(S'japan'
p3799
I15
tp3800
a(S'alexis'
p3801
I15
tp3802
a(S'porn'
p3803
I15
tp3804
a(S'contents'
p3805
I15
tp3806
a(S'lanse'
p3807
I15
tp3808
a(S'da'
p3809
I15
tp3810
a(S'identify'
p3811
I15
tp3812
a(S'photo'
p3813
I15
tp3814
a(S'fight'
p3815
I15
tp3816
a(S'listserv'
p3817
I15
tp3818
a(S'flaw'
p3819
I15
tp3820
a(S'exclude'
p3821
I15
tp3822
a(S'utilize'
p3823
I15
tp3824
a(S'moreover'
p3825
I15
tp3826
a(S'trick'
p3827
I15
tp3828
a(S'death'
p3829
I15
tp3830
a(S'anytime'
p3831
I15
tp3832
a(S'expand'
p3833
I15
tp3834
a(S'unsolicit'
p3835
I15
tp3836
a(S'gb'
p3837
I15
tp3838
a(S'vehicle'
p3839
I15
tp3840
a(S'biggest'
p3841
I15
tp3842
a(S'resident'
p3843
I15
tp3844
a(S'surface'
p3845
I15
tp3846
a(S'capture'
p3847
I15
tp3848
a(S'jeff'
p3849
I15
tp3850
a(S'jasmin'
p3851
I15
tp3852
a(S'whom'
p3853
I15
tp3854
a(S'asian'
p3855
I15
tp3856
a(S'summarize'
p3857
I15
tp3858
a(S'ofs'
p3859
I15
tp3860
a(S'maria'
p3861
I15
tp3862
a(S'harvard'
p3863
I15
tp3864
a(S'qty'
p3865
I15
tp3866
a(S'analytic'
p3867
I15
tp3868
a(S'france'
p3869
I15
tp3870
a(S'encode'
p3871
I15
tp3872
a(S'amateur'
p3873
I15
tp3874
a(S'assist'
p3875
I15
tp3876
a(S'manufacturer'
p3877
I15
tp3878
a(S'lawyer'
p3879
I15
tp3880
a(S'airport'
p3881
I15
tp3882
a(S'energy'
p3883
I15
tp3884
a(S'significant'
p3885
I15
tp3886
a(S'universitaet'
p3887
I15
tp3888
a(S'patient'
p3889
I15
tp3890
a(S'mix'
p3891
I15
tp3892
a(S'gather'
p3893
I15
tp3894
a(S'beat'
p3895
I15
tp3896
a(S'esl'
p3897
I15
tp3898
a(S'assessment'
p3899
I15
tp3900
a(S'iowa'
p3901
I15
tp3902
a(S'clothe'
p3903
I15
tp3904
a(S'flow'
p3905
I15
tp3906
a(S'cycle'
p3907
I15
tp3908
a(S'gift'
p3909
I15
tp3910
a(S'informative'
p3911
I15
tp3912
a(S'affair'
p3913
I15
tp3914
a(S'alan'
p3915
I15
tp3916
a(S'pacific'
p3917
I15
tp3918
a(S'oh'
p3919
I15
tp3920
a(S'military'
p3921
I15
tp3922
a(S'stick'
p3923
I15
tp3924
a(S'regardless'
p3925
I15
tp3926
a(S'productive'
p3927
I15
tp3928
a(S'characteristic'
p3929
I15
tp3930
a(S'highlight'
p3931
I15
tp3932
a(S'tag'
p3933
I15
tp3934
a(S'ethnic'
p3935
I15
tp3936
a(S'stamped'
p3937
I15
tp3938
a(S'favor'
p3939
I15
tp3940
a(S'subscribe'
p3941
I15
tp3942
a(S'scholar'
p3943
I14
tp3944
a(S'straight'
p3945
I14
tp3946
a(S'preferably'
p3947
I14
tp3948
a(S'methodology'
p3949
I14
tp3950
a(S'white'
p3951
I14
tp3952
a(S'entry'
p3953
I14
tp3954
a(S'tamu'
p3955
I14
tp3956
a(S'bounce'
p3957
I14
tp3958
a(S'push'
p3959
I14
tp3960
a(S'intuition'
p3961
I14
tp3962
a(S'syllable'
p3963
I14
tp3964
a(S'intonation'
p3965
I14
tp3966
a(S'binary'
p3967
I14
tp3968
a(S'apologize'
p3969
I14
tp3970
a(S'brazilian'
p3971
I14
tp3972
a(S'morn'
p3973
I14
tp3974
a(S'interface'
p3975
I14
tp3976
a(S'pronominal'
p3977
I14
tp3978
a(S'bp'
p3979
I14
tp3980
a(S'span'
p3981
I14
tp3982
a(S'coreference'
p3983
I14
tp3984
a(S'confidence'
p3985
I14
tp3986
a(S'counter'
p3987
I14
tp3988
a(S'familiar'
p3989
I14
tp3990
a(S'frame'
p3991
I14
tp3992
a(S'ball'
p3993
I14
tp3994
a(S'phd'
p3995
I14
tp3996
a(S'merge'
p3997
I14
tp3998
a(S'annabel'
p3999
I14
tp4000
a(S'compute'
p4001
I14
tp4002
a(S'hawaius'
p4003
I14
tp4004
a(S'residual'
p4005
I14
tp4006
a(S'latter'
p4007
I14
tp4008
a(S'implication'
p4009
I14
tp4010
a(S'normally'
p4011
I14
tp4012
a(S'reflect'
p4013
I14
tp4014
a(S'privacy'
p4015
I14
tp4016
a(S'husband'
p4017
I14
tp4018
a(S'unmark'
p4019
I14
tp4020
a(S'advertising'
p4021
I14
tp4022
a(S'evaluate'
p4023
I14
tp4024
a(S'authority'
p4025
I14
tp4026
a(S'barbara'
p4027
I14
tp4028
a(S'jump'
p4029
I14
tp4030
a(S'prospective'
p4031
I14
tp4032
a(S'confuse'
p4033
I14
tp4034
a(S'upset'
p4035
I14
tp4036
a(S'gesture'
p4037
I14
tp4038
a(S'violation'
p4039
I14
tp4040
a(S'winner'
p4041
I14
tp4042
a(S'futuresignal'
p4043
I14
tp4044
a(S'repeat'
p4045
I14
tp4046
a(S'display'
p4047
I14
tp4048
a(S'persistent'
p4049
I14
tp4050
a(S'calculate'
p4051
I14
tp4052
a(S'anthropology'
p4053
I14
tp4054
a(S'survive'
p4055
I14
tp4056
a(S'setup'
p4057
I14
tp4058
a(S'older'
p4059
I14
tp4060
a(S'christopher'
p4061
I14
tp4062
a(S'turkic'
p4063
I14
tp4064
a(S'bad'
p4065
I14
tp4066
a(S'presumably'
p4067
I14
tp4068
a(S'balance'
p4069
I14
tp4070
a(S'notification'
p4071
I14
tp4072
a(S'failure'
p4073
I14
tp4074
a(S'lsa'
p4075
I14
tp4076
a(S'nearly'
p4077
I14
tp4078
a(S'solve'
p4079
I14
tp4080
a(S'deep'
p4081
I14
tp4082
a(S'perception'
p4083
I14
tp4084
a(S'casino'
p4085
I14
tp4086
a(S'pamelum'
p4087
I14
tp4088
a(S'solid'
p4089
I14
tp4090
a(S'translate'
p4091
I14
tp4092
a(S'effectively'
p4093
I14
tp4094
a(S'brian'
p4095
I14
tp4096
a(S'criminal'
p4097
I14
tp4098
a(S'steal'
p4099
I14
tp4100
a(S'bull'
p4101
I14
tp4102
a(S'ads'
p4103
I14
tp4104
a(S'italian'
p4105
I14
tp4106
a(S'ltd'
p4107
I14
tp4108
a(S'vita'
p4109
I14
tp4110
a(S'independence'
p4111
I14
tp4112
a(S'toy'
p4113
I14
tp4114
a(S'thoma'
p4115
I14
tp4116
a(S'richer'
p4117
I14
tp4118
a(S'component'
p4119
I14
tp4120
a(S'percentage'
p4121
I14
tp4122
a(S'tutorial'
p4123
I14
tp4124
a(S'water'
p4125
I14
tp4126
a(S'teen'
p4127
I14
tp4128
a(S'revenue'
p4129
I14
tp4130
a(S'returns'
p4131
I14
tp4132
a(S'transcription'
p4133
I14
tp4134
a(S'reaction'
p4135
I14
tp4136
a(S'careful'
p4137
I14
tp4138
a(S'reward'
p4139
I14
tp4140
a(S'inflation'
p4141
I14
tp4142
a(S'trash'
p4143
I14
tp4144
a(S'barcelona'
p4145
I14
tp4146
a(S'glad'
p4147
I14
tp4148
a(S'inflection'
p4149
I14
tp4150
a(S'mci'
p4151
I14
tp4152
a(S'durham'
p4153
I14
tp4154
a(S'explore'
p4155
I14
tp4156
a(S'banner'
p4157
I14
tp4158
a(S'hence'
p4159
I14
tp4160
a(S'driver'
p4161
I14
tp4162
a(S'conversational'
p4163
I13
tp4164
a(S'household'
p4165
I13
tp4166
a(S'fix'
p4167
I13
tp4168
a(S'specialist'
p4169
I13
tp4170
a(S'union'
p4171
I13
tp4172
a(S'selle'
p4173
I13
tp4174
a(S'birth'
p4175
I13
tp4176
a(S'remind'
p4177
I13
tp4178
a(S'logical'
p4179
I13
tp4180
a(S'crime'
p4181
I13
tp4182
a(S'spot'
p4183
I13
tp4184
a(S'seriously'
p4185
I13
tp4186
a(S'prospect'
p4187
I13
tp4188
a(S'salt'
p4189
I13
tp4190
a(S'homepage'
p4191
I13
tp4192
a(S'psychology'
p4193
I13
tp4194
a(S'writer'
p4195
I13
tp4196
a(S'construct'
p4197
I13
tp4198
a(S'tire'
p4199
I13
tp4200
a(S'uc'
p4201
I13
tp4202
a(S'incorporate'
p4203
I13
tp4204
a(S'cte'
p4205
I13
tp4206
a(S'illegal'
p4207
I13
tp4208
a(S'truth'
p4209
I13
tp4210
a(S'matthew'
p4211
I13
tp4212
a(S'motivate'
p4213
I13
tp4214
a(S'band'
p4215
I13
tp4216
a(S'daniel'
p4217
I13
tp4218
a(S'guild'
p4219
I13
tp4220
a(S'lawful'
p4221
I13
tp4222
a(S'personality'
p4223
I13
tp4224
a(S'du'
p4225
I13
tp4226
a(S'aim'
p4227
I13
tp4228
a(S'hebrew'
p4229
I13
tp4230
a(S'expertise'
p4231
I13
tp4232
a(S'trouble'
p4233
I13
tp4234
a(S'diskette'
p4235
I13
tp4236
a(S'liddell'
p4237
I13
tp4238
a(S'flamer'
p4239
I13
tp4240
a(S'heart'
p4241
I13
tp4242
a(S'el'
p4243
I13
tp4244
a(S'mostly'
p4245
I13
tp4246
a(S'equipment'
p4247
I13
tp4248
a(S'ratio'
p4249
I13
tp4250
a(S'postcard'
p4251
I13
tp4252
a(S'mil'
p4253
I13
tp4254
a(S'station'
p4255
I13
tp4256
a(S'lie'
p4257
I13
tp4258
a(S'comfort'
p4259
I13
tp4260
a(S'dialogue'
p4261
I13
tp4262
a(S'smart'
p4263
I13
tp4264
a(S'mathematical'
p4265
I13
tp4266
a(S'juno'
p4267
I13
tp4268
a(S'cram'
p4269
I13
tp4270
a(S'reprint'
p4271
I13
tp4272
a(S'constitute'
p4273
I13
tp4274
a(S'anyway'
p4275
I13
tp4276
a(S'tuesday'
p4277
I13
tp4278
a(S'distinguish'
p4279
I13
tp4280
a(S'nation'
p4281
I13
tp4282
a(S'affect'
p4283
I13
tp4284
a(S'affordable'
p4285
I13
tp4286
a(S'desirous'
p4287
I13
tp4288
a(S'fetish'
p4289
I13
tp4290
a(S'active'
p4291
I13
tp4292
a(S'spokane'
p4293
I13
tp4294
a(S'posting'
p4295
I13
tp4296
a(S'keyboard'
p4297
I13
tp4298
a(S'combination'
p4299
I13
tp4300
a(S'comprehensive'
p4301
I13
tp4302
a(S'pain'
p4303
I13
tp4304
a(S'merely'
p4305
I13
tp4306
a(S'map'
p4307
I13
tp4308
a(S'finance'
p4309
I13
tp4310
a(S'imperative'
p4311
I13
tp4312
a(S'sean'
p4313
I13
tp4314
a(S'tout'
p4315
I13
tp4316
a(S'moo'
p4317
I13
tp4318
a(S'pronounce'
p4319
I13
tp4320
a(S'children'
p4321
I13
tp4322
a(S'astonishment'
p4323
I13
tp4324
a(S'none'
p4325
I13
tp4326
a(S'faculty'
p4327
I13
tp4328
a(S'industrial'
p4329
I13
tp4330
a(S'mclaughlin'
p4331
I13
tp4332
a(S'administrative'
p4333
I13
tp4334
a(S'biz'
p4335
I13
tp4336
a(S'humorous'
p4337
I13
tp4338
a(S'usc'
p4339
I13
tp4340
a(S'sing'
p4341
I13
tp4342
a(S'iii'
p4343
I13
tp4344
a(S'retain'
p4345
I13
tp4346
a(S'nobody'
p4347
I13
tp4348
a(S'define'
p4349
I13
tp4350
a(S'classical'
p4351
I13
tp4352
a(S'amherst'
p4353
I13
tp4354
a(S'pic'
p4355
I13
tp4356
a(S'attract'
p4357
I13
tp4358
a(S'rental'
p4359
I13
tp4360
a(S'formation'
p4361
I13
tp4362
a(S'coin'
p4363
I13
tp4364
a(S'totals'
p4365
I13
tp4366
a(S'surround'
p4367
I13
tp4368
a(S'nj'
p4369
I13
tp4370
a(S'ne'
p4371
I13
tp4372
a(S'adjective'
p4373
I13
tp4374
a(S'msn'
p4375
I13
tp4376
a(S'intercourse'
p4377
I13
tp4378
a(S'specify'
p4379
I13
tp4380
a(S'fairchild'
p4381
I13
tp4382
a(S'svminus'
p4383
I13
tp4384
a(S'parse'
p4385
I13
tp4386
a(S'polish'
p4387
I13
tp4388
a(S'spouse'
p4389
I13
tp4390
a(S'removal'
p4391
I13
tp4392
a(S'scientist'
p4393
I13
tp4394
a(S'resort'
p4395
I13
tp4396
a(S'notify'
p4397
I13
tp4398
a(S'bond'
p4399
I13
tp4400
a(S'complaint'
p4401
I13
tp4402
a(S'skeptical'
p4403
I13
tp4404
a(S'pipeline'
p4405
I13
tp4406
a(S'motor'
p4407
I13
tp4408
a(S'accent'
p4409
I13
tp4410
a(S'recipe'
p4411
I13
tp4412
a(S'cross'
p4413
I13
tp4414
a(S'cogscus'
p4415
I13
tp4416
a(S'confidential'
p4417
I13
tp4418
a(S'pack'
p4419
I12
tp4420
a(S'hop'
p4421
I12
tp4422
a(S'amlap'
p4423
I12
tp4424
a(S'danish'
p4425
I12
tp4426
a(S'busy'
p4427
I12
tp4428
a(S'argue'
p4429
I12
tp4430
a(S'rockland'
p4431
I12
tp4432
a(S'cuny'
p4433
I12
tp4434
a(S'commerce'
p4435
I12
tp4436
a(S'refinance'
p4437
I12
tp4438
a(S'scope'
p4439
I12
tp4440
a(S'cearth'
p4441
I12
tp4442
a(S'allen'
p4443
I12
tp4444
a(S'compress'
p4445
I12
tp4446
a(S'atlantic'
p4447
I12
tp4448
a(S'slow'
p4449
I12
tp4450
a(S'workplace'
p4451
I12
tp4452
a(S'dislocation'
p4453
I12
tp4454
a(S'singapore'
p4455
I12
tp4456
a(S'diachronic'
p4457
I12
tp4458
a(S'pop'
p4459
I12
tp4460
a(S'tr'
p4461
I12
tp4462
a(S'te'
p4463
I12
tp4464
a(S'transmission'
p4465
I12
tp4466
a(S'found'
p4467
I12
tp4468
a(S'thereafter'
p4469
I12
tp4470
a(S'von'
p4471
I12
tp4472
a(S'infinitive'
p4473
I12
tp4474
a(S'un'
p4475
I12
tp4476
a(S'reproduce'
p4477
I12
tp4478
a(S'embark'
p4479
I12
tp4480
a(S'bilingual'
p4481
I12
tp4482
a(S'operator'
p4483
I12
tp4484
a(S'log'
p4485
I12
tp4486
a(S'false'
p4487
I12
tp4488
a(S'partnership'
p4489
I12
tp4490
a(S'entitle'
p4491
I12
tp4492
a(S'rutger'
p4493
I12
tp4494
a(S'compete'
p4495
I12
tp4496
a(S'rewrite'
p4497
I12
tp4498
a(S'spread'
p4499
I12
tp4500
a(S'innateness'
p4501
I12
tp4502
a(S'investnet'
p4503
I12
tp4504
a(S'reception'
p4505
I12
tp4506
a(S'wonderful'
p4507
I12
tp4508
a(S'entirely'
p4509
I12
tp4510
a(S'furthermore'
p4511
I12
tp4512
a(S'tomorrow'
p4513
I12
tp4514
a(S'celebrate'
p4515
I12
tp4516
a(S'stun'
p4517
I12
tp4518
a(S'editorial'
p4519
I12
tp4520
a(S'output'
p4521
I12
tp4522
a(S'twelve'
p4523
I12
tp4524
a(S'brooklyn'
p4525
I12
tp4526
a(S'merciless'
p4527
I12
tp4528
a(S'genre'
p4529
I12
tp4530
a(S'taiwan'
p4531
I12
tp4532
a(S'larry'
p4533
I12
tp4534
a(S'required'
p4535
I12
tp4536
a(S'ga'
p4537
I12
tp4538
a(S'wave'
p4539
I12
tp4540
a(S'experiment'
p4541
I12
tp4542
a(S'entertainment'
p4543
I12
tp4544
a(S'fuer'
p4545
I12
tp4546
a(S'employer'
p4547
I12
tp4548
a(S'neither'
p4549
I12
tp4550
a(S'strange'
p4551
I12
tp4552
a(S'yuen'
p4553
I12
tp4554
a(S'tongue'
p4555
I12
tp4556
a(S'xerox'
p4557
I12
tp4558
a(S'county'
p4559
I12
tp4560
a(S'minority'
p4561
I12
tp4562
a(S'princeton'
p4563
I12
tp4564
a(S'conduct'
p4565
I12
tp4566
a(S'slavic'
p4567
I12
tp4568
a(S'ourselve'
p4569
I12
tp4570
a(S'massachusett'
p4571
I12
tp4572
a(S'rock'
p4573
I12
tp4574
a(S'paid'
p4575
I12
tp4576
a(S'dick'
p4577
I12
tp4578
a(S'critical'
p4579
I12
tp4580
a(S'bulgarian'
p4581
I12
tp4582
a(S'benefits'
p4583
I12
tp4584
a(S'mountain'
p4585
I12
tp4586
a(S'genuine'
p4587
I12
tp4588
a(S'cum'
p4589
I12
tp4590
a(S'bit'
p4591
I12
tp4592
a(S'honor'
p4593
I12
tp4594
a(S'lecture'
p4595
I12
tp4596
a(S'red'
p4597
I12
tp4598
a(S'sericel'
p4599
I12
tp4600
a(S'grumble'
p4601
I12
tp4602
a(S'pheromone'
p4603
I12
tp4604
a(S'administration'
p4605
I12
tp4606
a(S'recommendation'
p4607
I12
tp4608
a(S'esq'
p4609
I12
tp4610
a(S'confident'
p4611
I12
tp4612
a(S'path'
p4613
I12
tp4614
a(S'mb'
p4615
I12
tp4616
a(S'mx'
p4617
I12
tp4618
a(S'elizabeth'
p4619
I12
tp4620
a(S'spout'
p4621
I12
tp4622
a(S'restrict'
p4623
I12
tp4624
a(S'flame'
p4625
I12
tp4626
a(S'rat'
p4627
I12
tp4628
a(S'victim'
p4629
I12
tp4630
a(S'prepared'
p4631
I12
tp4632
a(S'excerpt'
p4633
I12
tp4634
a(S'doorstep'
p4635
I12
tp4636
a(S'trend'
p4637
I12
tp4638
a(S'proud'
p4639
I12
tp4640
a(S'memory'
p4641
I12
tp4642
a(S'fourth'
p4643
I12
tp4644
a(S'legally'
p4645
I12
tp4646
a(S'adopt'
p4647
I12
tp4648
a(S'region'
p4649
I12
tp4650
a(S'jun'
p4651
I12
tp4652
a(S'sue'
p4653
I12
tp4654
a(S'cancun'
p4655
I12
tp4656
a(S'blast'
p4657
I12
tp4658
a(S'differ'
p4659
I12
tp4660
a(S'fastest'
p4661
I12
tp4662
a(S'arm'
p4663
I12
tp4664
a(S'anna'
p4665
I12
tp4666
a(S'instantly'
p4667
I12
tp4668
a(S'vendor'
p4669
I12
tp4670
a(S'lowland'
p4671
I12
tp4672
a(S'metro'
p4673
I12
tp4674
a(S'stream'
p4675
I12
tp4676
a(S'birthday'
p4677
I12
tp4678
a(S'purely'
p4679
I12
tp4680
a(S'grounds'
p4681
I12
tp4682
a(S'utrecht'
p4683
I12
tp4684
a(S'exceed'
p4685
I12
tp4686
a(S'firm'
p4687
I12
tp4688
a(S'prefix'
p4689
I11
tp4690
a(S'vbanaqeanvsuprqpnpphx'
p4691
I11
tp4692
a(S'intensification'
p4693
I11
tp4694
a(S'budget'
p4695
I11
tp4696
a(S'classification'
p4697
I11
tp4698
a(S'unix'
p4699
I11
tp4700
a(S'silver'
p4701
I11
tp4702
a(S'ruth'
p4703
I11
tp4704
a(S'xiv'
p4705
I11
tp4706
a(S'released'
p4707
I11
tp4708
a(S'rice'
p4709
I11
tp4710
a(S'frus'
p4711
I11
tp4712
a(S'dental'
p4713
I11
tp4714
a(S'facility'
p4715
I11
tp4716
a(S'venice'
p4717
I11
tp4718
a(S'originally'
p4719
I11
tp4720
a(S'awesome'
p4721
I11
tp4722
a(S'caucasus'
p4723
I11
tp4724
a(S'vote'
p4725
I11
tp4726
a(S'beesley'
p4727
I11
tp4728
a(S'suit'
p4729
I11
tp4730
a(S'spare'
p4731
I11
tp4732
a(S'former'
p4733
I11
tp4734
a(S'carl'
p4735
I11
tp4736
a(S'rd'
p4737
I11
tp4738
a(S'norm'
p4739
I11
tp4740
a(S'via'
p4741
I11
tp4742
a(S'highway'
p4743
I11
tp4744
a(S'insertion'
p4745
I11
tp4746
a(S'isdn'
p4747
I11
tp4748
a(S'migration'
p4749
I11
tp4750
a(S'repair'
p4751
I11
tp4752
a(S'fulfill'
p4753
I11
tp4754
a(S'bother'
p4755
I11
tp4756
a(S'mechanism'
p4757
I11
tp4758
a(S'accuracy'
p4759
I11
tp4760
a(S'hardware'
p4761
I11
tp4762
a(S'llc'
p4763
I11
tp4764
a(S'finnish'
p4765
I11
tp4766
a(S'airline'
p4767
I11
tp4768
a(S'linguistlist'
p4769
I11
tp4770
a(S'obey'
p4771
I11
tp4772
a(S'strength'
p4773
I11
tp4774
a(S'massive'
p4775
I11
tp4776
a(S'norwegian'
p4777
I11
tp4778
a(S'clearance'
p4779
I11
tp4780
a(S'montreal'
p4781
I11
tp4782
a(S'clue'
p4783
I11
tp4784
a(S'fraction'
p4785
I11
tp4786
a(S'typically'
p4787
I11
tp4788
a(S'namely'
p4789
I11
tp4790
a(S'worry'
p4791
I11
tp4792
a(S'central'
p4793
I11
tp4794
a(S'inclusion'
p4795
I11
tp4796
a(S'ferraz'
p4797
I11
tp4798
a(S'manager'
p4799
I11
tp4800
a(S'excuse'
p4801
I11
tp4802
a(S'documentation'
p4803
I11
tp4804
a(S'mouse'
p4805
I11
tp4806
a(S'barsky'
p4807
I11
tp4808
a(S'launch'
p4809
I11
tp4810
a(S'salary'
p4811
I11
tp4812
a(S'completion'
p4813
I11
tp4814
a(S'experimental'
p4815
I11
tp4816
a(S'hbe'
p4817
I11
tp4818
a(S'belong'
p4819
I11
tp4820
a(S'economic'
p4821
I11
tp4822
a(S'rug'
p4823
I11
tp4824
a(S'gl'
p4825
I11
tp4826
a(S'friendly'
p4827
I11
tp4828
a(S'patent'
p4829
I11
tp4830
a(S'beg'
p4831
I11
tp4832
a(S'michigan'
p4833
I11
tp4834
a(S'evolution'
p4835
I11
tp4836
a(S'ken'
p4837
I11
tp4838
a(S'maximize'
p4839
I11
tp4840
a(S'diversity'
p4841
I11
tp4842
a(S'pb'
p4843
I11
tp4844
a(S'diego'
p4845
I11
tp4846
a(S'rntk'
p4847
I11
tp4848
a(S'ist'
p4849
I11
tp4850
a(S'communicative'
p4851
I11
tp4852
a(S'checks'
p4853
I11
tp4854
a(S'dead'
p4855
I11
tp4856
a(S'preview'
p4857
I11
tp4858
a(S'mill'
p4859
I11
tp4860
a(S'father'
p4861
I11
tp4862
a(S'tokyo'
p4863
I11
tp4864
a(S'entity'
p4865
I11
tp4866
a(S'comrie'
p4867
I11
tp4868
a(S'greenberg'
p4869
I11
tp4870
a(S'hearer'
p4871
I11
tp4872
a(S'speakers'
p4873
I11
tp4874
a(S'lexicon'
p4875
I11
tp4876
a(S'yield'
p4877
I11
tp4878
a(S'reading'
p4879
I11
tp4880
a(S'ucla'
p4881
I11
tp4882
a(S'zero'
p4883
I11
tp4884
a(S'armey'
p4885
I11
tp4886
a(S'complain'
p4887
I11
tp4888
a(S'mystery'
p4889
I11
tp4890
a(S'twenty'
p4891
I11
tp4892
a(S'judgement'
p4893
I11
tp4894
a(S'goods'
p4895
I11
tp4896
a(S'arrange'
p4897
I11
tp4898
a(S'institutional'
p4899
I11
tp4900
a(S'ld'
p4901
I11
tp4902
a(S'spell'
p4903
I11
tp4904
a(S'facilitate'
p4905
I11
tp4906
a(S'thought'
p4907
I11
tp4908
a(S'soviet'
p4909
I11
tp4910
a(S'investigative'
p4911
I11
tp4912
a(S'violate'
p4913
I11
tp4914
a(S'diana'
p4915
I11
tp4916
a(S'god'
p4917
I11
tp4918
a(S'snow'
p4919
I11
tp4920
a(S'twice'
p4921
I11
tp4922
a(S'tommy'
p4923
I11
tp4924
a(S'catch'
p4925
I11
tp4926
a(S'mother'
p4927
I11
tp4928
a(S'alabama'
p4929
I11
tp4930
a(S'dinner'
p4931
I11
tp4932
a(S'anderson'
p4933
I11
tp4934
a(S'bargain'
p4935
I11
tp4936
a(S'australian'
p4937
I11
tp4938
a(S'george'
p4939
I11
tp4940
a(S'anu'
p4941
I11
tp4942
a(S'cheap'
p4943
I11
tp4944
a(S'arnold'
p4945
I11
tp4946
a(S'blow'
p4947
I11
tp4948
a(S'deduct'
p4949
I11
tp4950
a(S'compaq'
p4951
I11
tp4952
a(S'systemic'
p4953
I11
tp4954
a(S'sum'
p4955
I11
tp4956
a(S'proceed'
p4957
I11
tp4958
a(S'arise'
p4959
I11
tp4960
a(S'caucasian'
p4961
I11
tp4962
a(S'feed'
p4963
I11
tp4964
a(S'women'
p4965
I11
tp4966
a(S'sil'
p4967
I11
tp4968
a(S'abuse'
p4969
I11
tp4970
a(S'promptly'
p4971
I11
tp4972
a(S'afraid'
p4973
I11
tp4974
a(S'vernacular'
p4975
I11
tp4976
a(S'fabulous'
p4977
I11
tp4978
a(S'divorce'
p4979
I11
tp4980
a(S'extension'
p4981
I11
tp4982
a(S'intention'
p4983
I11
tp4984
a(S'sgml'
p4985
I11
tp4986
a(S'yahoo'
p4987
I10
tp4988
a(S'absolute'
p4989
I10
tp4990
a(S'approve'
p4991
I10
tp4992
a(S'foundation'
p4993
I10
tp4994
a(S'glasgow'
p4995
I10
tp4996
a(S'adverb'
p4997
I10
tp4998
a(S'interpret'
p4999
I10
tp5000
a(S'awhile'
p5001
I10
tp5002
a(S'sterl'
p5003
I10
tp5004
a(S'descrambler'
p5005
I10
tp5006
a(S'contrastive'
p5007
I10
tp5008
a(S'commonly'
p5009
I10
tp5010
a(S'positive'
p5011
I10
tp5012
a(S'jim'
p5013
I10
tp5014
a(S'poster'
p5015
I10
tp5016
a(S'prime'
p5017
I10
tp5018
a(S'pull'
p5019
I10
tp5020
a(S'th'
p5021
I10
tp5022
a(S'appointment'
p5023
I10
tp5024
a(S'mall'
p5025
I10
tp5026
a(S'messages'
p5027
I10
tp5028
a(S'bondage'
p5029
I10
tp5030
a(S'church'
p5031
I10
tp5032
a(S'geoffrey'
p5033
I10
tp5034
a(S'proven'
p5035
I10
tp5036
a(S'input'
p5037
I10
tp5038
a(S'santa'
p5039
I10
tp5040
a(S'eepp'
p5041
I10
tp5042
a(S'dislike'
p5043
I10
tp5044
a(S'telecom'
p5045
I10
tp5046
a(S'integrate'
p5047
I10
tp5048
a(S'educational'
p5049
I10
tp5050
a(S'unsubscribe'
p5051
I10
tp5052
a(S'keynote'
p5053
I10
tp5054
a(S'cf'
p5055
I10
tp5056
a(S'homosexual'
p5057
I10
tp5058
a(S'concordance'
p5059
I10
tp5060
a(S'belgium'
p5061
I10
tp5062
a(S'recognition'
p5063
I10
tp5064
a(S'irit'
p5065
I10
tp5066
a(S'scholarly'
p5067
I10
tp5068
a(S'defend'
p5069
I10
tp5070
a(S'controversial'
p5071
I10
tp5072
a(S'living'
p5073
I10
tp5074
a(S'minus'
p5075
I10
tp5076
a(S'corporate'
p5077
I10
tp5078
a(S'johanna'
p5079
I10
tp5080
a(S'kitchen'
p5081
I10
tp5082
a(S'jose'
p5083
I10
tp5084
a(S'tesl'
p5085
I10
tp5086
a(S'assistance'
p5087
I10
tp5088
a(S'shares'
p5089
I10
tp5090
a(S'buck'
p5091
I10
tp5092
a(S'norway'
p5093
I10
tp5094
a(S'ea'
p5095
I10
tp5096
a(S'wccfl'
p5097
I10
tp5098
a(S'morpheme'
p5099
I10
tp5100
a(S'recieve'
p5101
I10
tp5102
a(S'import'
p5103
I10
tp5104
a(S'countless'
p5105
I10
tp5106
a(S'recording'
p5107
I10
tp5108
a(S'heavy'
p5109
I10
tp5110
a(S'horse'
p5111
I10
tp5112
a(S'mega'
p5113
I10
tp5114
a(S'anon'
p5115
I10
tp5116
a(S'anthony'
p5117
I10
tp5118
a(S'broker'
p5119
I10
tp5120
a(S'conflict'
p5121
I10
tp5122
a(S'innate'
p5123
I10
tp5124
a(S'adults'
p5125
I10
tp5126
a(S'savings'
p5127
I10
tp5128
a(S'claire'
p5129
I10
tp5130
a(S'route'
p5131
I10
tp5132
a(S'switch'
p5133
I10
tp5134
a(S'importance'
p5135
I10
tp5136
a(S'approval'
p5137
I10
tp5138
a(S'frequently'
p5139
I10
tp5140
a(S'amd'
p5141
I10
tp5142
a(S'contest'
p5143
I10
tp5144
a(S'similarity'
p5145
I10
tp5146
a(S'expose'
p5147
I10
tp5148
a(S'virginium'
p5149
I10
tp5150
a(S'lesbian'
p5151
I10
tp5152
a(S'typology'
p5153
I10
tp5154
a(S'undoubtedly'
p5155
I10
tp5156
a(S'bar'
p5157
I10
tp5158
a(S'sle'
p5159
I10
tp5160
a(S'shame'
p5161
I10
tp5162
a(S'burn'
p5163
I10
tp5164
a(S'lien'
p5165
I10
tp5166
a(S'detective'
p5167
I10
tp5168
a(S'max'
p5169
I10
tp5170
a(S'complexity'
p5171
I10
tp5172
a(S'corner'
p5173
I10
tp5174
a(S'treasury'
p5175
I10
tp5176
a(S'secondary'
p5177
I10
tp5178
a(S'tour'
p5179
I10
tp5180
a(S'cancel'
p5181
I10
tp5182
a(S'revolution'
p5183
I10
tp5184
a(S'consistently'
p5185
I10
tp5186
a(S'capable'
p5187
I10
tp5188
a(S'imagination'
p5189
I10
tp5190
a(S'premium'
p5191
I10
tp5192
a(S'capacitor'
p5193
I10
tp5194
a(S'hfl'
p5195
I10
tp5196
a(S'micro'
p5197
I10
tp5198
a(S'pari'
p5199
I10
tp5200
a(S'seller'
p5201
I10
tp5202
a(S'expert'
p5203
I10
tp5204
a(S'restaurant'
p5205
I10
tp5206
a(S'steven'
p5207
I10
tp5208
a(S'multilevel'
p5209
I10
tp5210
a(S'cure'
p5211
I10
tp5212
a(S'extreme'
p5213
I10
tp5214
a(S'trail'
p5215
I10
tp5216
a(S'obvious'
p5217
I10
tp5218
a(S'lingua'
p5219
I10
tp5220
a(S'ancient'
p5221
I10
tp5222
a(S'assure'
p5223
I10
tp5224
a(S'proposal'
p5225
I10
tp5226
a(S'citizen'
p5227
I10
tp5228
a(S'literacy'
p5229
I10
tp5230
a(S'sriharus'
p5231
I10
tp5232
a(S'congress'
p5233
I10
tp5234
a(S'encounter'
p5235
I10
tp5236
a(S'eugene'
p5237
I10
tp5238
a(S'fantasy'
p5239
I10
tp5240
a(S'fashion'
p5241
I10
tp5242
a(S'bed'
p5243
I10
tp5244
a(S'comprehension'
p5245
I10
tp5246
a(S'precede'
p5247
I10
tp5248
a(S'subjunctive'
p5249
I10
tp5250
a(S'donald'
p5251
I10
tp5252
a(S'icc'
p5253
I10
tp5254
a(S'sleuth'
p5255
I10
tp5256
a(S'convention'
p5257
I10
tp5258
a(S'muncie'
p5259
I10
tp5260
a(S'season'
p5261
I10
tp5262
a(S'robbie'
p5263
I10
tp5264
a(S'tea'
p5265
I10
tp5266
a(S'ted'
p5267
I10
tp5268
a(S'circumstance'
p5269
I10
tp5270
a(S'originate'
p5271
I10
tp5272
a(S'bundle'
p5273
I10
tp5274
a(S'defense'
p5275
I10
tp5276
a(S'referee'
p5277
I10
tp5278
a(S'wherea'
p5279
I10
tp5280
a(S'negotiate'
p5281
I10
tp5282
a(S'heterosexual'
p5283
I10
tp5284
a(S'fieldwork'
p5285
I10
tp5286
a(S'complimentary'
p5287
I10
tp5288
a(S'athen'
p5289
I10
tp5290
a(S'stable'
p5291
I10
tp5292
a(S'interactional'
p5293
I10
tp5294
a(S'apple'
p5295
I10
tp5296
a(S'apr'
p5297
I10
tp5298
a(S'examination'
p5299
I10
tp5300
a(S'administrator'
p5301
I10
tp5302
a(S'walter'
p5303
I10
tp5304
a(S'clip'
p5305
I10
tp5306
a(S'explicit'
p5307
I10
tp5308
a(S'deny'
p5309
I10
tp5310
a(S'amex'
p5311
I10
tp5312
a(S'math'
p5313
I10
tp5314
a(S'spammer'
p5315
I10
tp5316
a(S'celtic'
p5317
I10
tp5318
a(S'rare'
p5319
I10
tp5320
a(S'goodness'
p5321
I10
tp5322
a(S'lord'
p5323
I9
tp5324
a(S'china'
p5325
I9
tp5326
a(S'pursue'
p5327
I9
tp5328
a(S'stampe'
p5329
I9
tp5330
a(S'preserve'
p5331
I9
tp5332
a(S'kanzus'
p5333
I9
tp5334
a(S'joseph'
p5335
I9
tp5336
a(S'oversight'
p5337
I9
tp5338
a(S'pentium'
p5339
I9
tp5340
a(S'visual'
p5341
I9
tp5342
a(S'webster'
p5343
I9
tp5344
a(S'mime'
p5345
I9
tp5346
a(S'regional'
p5347
I9
tp5348
a(S'concentrate'
p5349
I9
tp5350
a(S'anti'
p5351
I9
tp5352
a(S'generator'
p5353
I9
tp5354
a(S'iulc'
p5355
I9
tp5356
a(S'scientific'
p5357
I9
tp5358
a(S'neighbor'
p5359
I9
tp5360
a(S'collin'
p5361
I9
tp5362
a(S'spatial'
p5363
I9
tp5364
a(S'andrea'
p5365
I9
tp5366
a(S'earning'
p5367
I9
tp5368
a(S'clock'
p5369
I9
tp5370
a(S'compliance'
p5371
I9
tp5372
a(S'scott'
p5373
I9
tp5374
a(S'rohinus'
p5375
I9
tp5376
a(S'aaa'
p5377
I9
tp5378
a(S'wayne'
p5379
I9
tp5380
a(S'river'
p5381
I9
tp5382
a(S'fold'
p5383
I9
tp5384
a(S'hint'
p5385
I9
tp5386
a(S'tonya'
p5387
I9
tp5388
a(S'saarbruecken'
p5389
I9
tp5390
a(S'necessity'
p5391
I9
tp5392
a(S'pala'
p5393
I9
tp5394
a(S'religion'
p5395
I9
tp5396
a(S'land'
p5397
I9
tp5398
a(S'consumer'
p5399
I9
tp5400
a(S'partial'
p5401
I9
tp5402
a(S'houston'
p5403
I9
tp5404
a(S'minimalist'
p5405
I9
tp5406
a(S'rousseau'
p5407
I9
tp5408
a(S'hindus'
p5409
I9
tp5410
a(S'exp'
p5411
I9
tp5412
a(S'manchester'
p5413
I9
tp5414
a(S'insight'
p5415
I9
tp5416
a(S'ce'
p5417
I9
tp5418
a(S'uci'
p5419
I9
tp5420
a(S'romance'
p5421
I9
tp5422
a(S'newest'
p5423
I9
tp5424
a(S'catherine'
p5425
I9
tp5426
a(S'inn'
p5427
I9
tp5428
a(S'desirable'
p5429
I9
tp5430
a(S'las'
p5431
I9
tp5432
a(S'manner'
p5433
I9
tp5434
a(S'bruce'
p5435
I9
tp5436
a(S'cornell'
p5437
I9
tp5438
a(S'board'
p5439
I9
tp5440
a(S'clinical'
p5441
I9
tp5442
a(S'instructional'
p5443
I9
tp5444
a(S'criterion'
p5445
I9
tp5446
a(S'brussel'
p5447
I9
tp5448
a(S'approx'
p5449
I9
tp5450
a(S'statistical'
p5451
I9
tp5452
a(S'accomplish'
p5453
I9
tp5454
a(S'toulouse'
p5455
I9
tp5456
a(S'duplication'
p5457
I9
tp5458
a(S'thompson'
p5459
I9
tp5460
a(S'explosive'
p5461
I9
tp5462
a(S'ein'
p5463
I9
tp5464
a(S'hire'
p5465
I9
tp5466
a(S'pkzip'
p5467
I9
tp5468
a(S'religious'
p5469
I9
tp5470
a(S'deliverable'
p5471
I9
tp5472
a(S'ff'
p5473
I9
tp5474
a(S'fool'
p5475
I9
tp5476
a(S'talmy'
p5477
I9
tp5478
a(S'corp'
p5479
I9
tp5480
a(S'pub'
p5481
I9
tp5482
a(S'caption'
p5483
I9
tp5484
a(S'affirmative'
p5485
I9
tp5486
a(S'watt'
p5487
I9
tp5488
a(S'territory'
p5489
I9
tp5490
a(S'bog'
p5491
I9
tp5492
a(S'representational'
p5493
I9
tp5494
a(S'ge'
p5495
I9
tp5496
a(S'ronald'
p5497
I9
tp5498
a(S'charset'
p5499
I9
tp5500
a(S'universite'
p5501
I9
tp5502
a(S'referral'
p5503
I9
tp5504
a(S'keller'
p5505
I9
tp5506
a(S'wilburn'
p5507
I9
tp5508
a(S'endless'
p5509
I9
tp5510
a(S'comparable'
p5511
I9
tp5512
a(S'predication'
p5513
I9
tp5514
a(S'reflection'
p5515
I9
tp5516
a(S'cognate'
p5517
I9
tp5518
a(S'broad'
p5519
I9
tp5520
a(S'desktop'
p5521
I9
tp5522
a(S'overflow'
p5523
I9
tp5524
a(S'eric'
p5525
I9
tp5526
a(S'valkhoff'
p5527
I9
tp5528
a(S'pardon'
p5529
I9
tp5530
a(S'nottingham'
p5531
I9
tp5532
a(S'worst'
p5533
I9
tp5534
a(S'differently'
p5535
I9
tp5536
a(S'friends'
p5537
I9
tp5538
a(S'derivational'
p5539
I9
tp5540
a(S'bag'
p5541
I9
tp5542
a(S'neal'
p5543
I9
tp5544
a(S'bin'
p5545
I9
tp5546
a(S'disappear'
p5547
I9
tp5548
a(S'signal'
p5549
I9
tp5550
a(S'tucson'
p5551
I9
tp5552
a(S'dare'
p5553
I9
tp5554
a(S'continual'
p5555
I9
tp5556
a(S'string'
p5557
I9
tp5558
a(S'airfare'
p5559
I9
tp5560
a(S'filled'
p5561
I9
tp5562
a(S'flexibility'
p5563
I9
tp5564
a(S'emailer'
p5565
I9
tp5566
a(S'nominal'
p5567
I9
tp5568
a(S'frequent'
p5569
I9
tp5570
a(S'kevin'
p5571
I9
tp5572
a(S'behind'
p5573
I9
tp5574
a(S'quantification'
p5575
I9
tp5576
a(S'shoriya'
p5577
I9
tp5578
a(S'roughly'
p5579
I9
tp5580
a(S'bottle'
p5581
I9
tp5582
a(S'integration'
p5583
I9
tp5584
a(S'robbery'
p5585
I9
tp5586
a(S'authenticate'
p5587
I9
tp5588
a(S'intensive'
p5589
I9
tp5590
a(S'respectfully'
p5591
I9
tp5592
a(S'privately'
p5593
I9
tp5594
a(S'afterward'
p5595
I9
tp5596
a(S'phonetician'
p5597
I9
tp5598
a(S'unlikely'
p5599
I9
tp5600
a(S'preliminary'
p5601
I9
tp5602
a(S'frederick'
p5603
I9
tp5604
a(S'regularly'
p5605
I9
tp5606
a(S'greece'
p5607
I9
tp5608
a(S'creat'
p5609
I9
tp5610
a(S'francisco'
p5611
I9
tp5612
a(S'lake'
p5613
I9
tp5614
a(S'dure'
p5615
I9
tp5616
a(S'hpsg'
p5617
I9
tp5618
a(S'sleep'
p5619
I9
tp5620
a(S'poison'
p5621
I9
tp5622
a(S'asymmetry'
p5623
I9
tp5624
a(S'comprehend'
p5625
I9
tp5626
a(S'interdisciplinary'
p5627
I9
tp5628
a(S'alex'
p5629
I9
tp5630
a(S'explode'
p5631
I9
tp5632
a(S'scenario'
p5633
I9
tp5634
a(S'outstand'
p5635
I9
tp5636
a(S'panel'
p5637
I9
tp5638
a(S'procedure'
p5639
I9
tp5640
a(S'unemployment'
p5641
I9
tp5642
a(S'judge'
p5643
I9
tp5644
a(S'apart'
p5645
I9
tp5646
a(S'removed'
p5647
I9
tp5648
a(S'yale'
p5649
I9
tp5650
a(S'hamilton'
p5651
I9
tp5652
a(S'continent'
p5653
I9
tp5654
a(S'necessarily'
p5655
I9
tp5656
a(S'hud'
p5657
I9
tp5658
a(S'nathan'
p5659
I9
tp5660
a(S'senior'
p5661
I9
tp5662
a(S'quantity'
p5663
I9
tp5664
a(S'alphabet'
p5665
I9
tp5666
a(S'strict'
p5667
I9
tp5668
a(S'fist'
p5669
I9
tp5670
a(S'incorrect'
p5671
I9
tp5672
a(S'included'
p5673
I9
tp5674
a(S'permanently'
p5675
I9
tp5676
a(S'division'
p5677
I9
tp5678
a(S'glide'
p5679
I9
tp5680
a(S'stephen'
p5681
I9
tp5682
a(S'presenter'
p5683
I9
tp5684
a(S'hill'
p5685
I9
tp5686
a(S'orthography'
p5687
I9
tp5688
a(S'widely'
p5689
I9
tp5690
a(S'romanization'
p5691
I9
tp5692
a(S'feb'
p5693
I9
tp5694
a(S'attribute'
p5695
I9
tp5696
a(S'tab'
p5697
I9
tp5698
a(S'chri'
p5699
I9
tp5700
a(S'fortunately'
p5701
I9
tp5702
a(S'honestly'
p5703
I9
tp5704
a(S'someday'
p5705
I9
tp5706
a(S'dupe'
p5707
I9
tp5708
a(S'encouragement'
p5709
I9
tp5710
a(S'wealthy'
p5711
I9
tp5712
a(S'adoption'
p5713
I9
tp5714
a(S'branch'
p5715
I9
tp5716
a(S'numeral'
p5717
I8
tp5718
a(S'ongo'
p5719
I8
tp5720
a(S'symmetrical'
p5721
I8
tp5722
a(S'criticism'
p5723
I8
tp5724
a(S'divide'
p5725
I8
tp5726
a(S'concord'
p5727
I8
tp5728
a(S'urbana'
p5729
I8
tp5730
a(S'estimate'
p5731
I8
tp5732
a(S'shopper'
p5733
I8
tp5734
a(S'mouth'
p5735
I8
tp5736
a(S'king'
p5737
I8
tp5738
a(S'conceptual'
p5739
I8
tp5740
a(S'extent'
p5741
I8
tp5742
a(S'joe'
p5743
I8
tp5744
a(S'extraction'
p5745
I8
tp5746
a(S'privilege'
p5747
I8
tp5748
a(S'worker'
p5749
I8
tp5750
a(S'fairly'
p5751
I8
tp5752
a(S'han'
p5753
I8
tp5754
a(S'billboard'
p5755
I8
tp5756
a(S'catchy'
p5757
I8
tp5758
a(S'leverage'
p5759
I8
tp5760
a(S'floor'
p5761
I8
tp5762
a(S'learnability'
p5763
I8
tp5764
a(S'printer'
p5765
I8
tp5766
a(S'sites'
p5767
I8
tp5768
a(S'dimension'
p5769
I8
tp5770
a(S'clan'
p5771
I8
tp5772
a(S'az'
p5773
I8
tp5774
a(S'adam'
p5775
I8
tp5776
a(S'attendance'
p5777
I8
tp5778
a(S'authentic'
p5779
I8
tp5780
a(S'pullum'
p5781
I8
tp5782
a(S'fundamental'
p5783
I8
tp5784
a(S'guest'
p5785
I8
tp5786
a(S'enterprize'
p5787
I8
tp5788
a(S'analogy'
p5789
I8
tp5790
a(S'microsoft'
p5791
I8
tp5792
a(S'closely'
p5793
I8
tp5794
a(S'senate'
p5795
I8
tp5796
a(S'magic'
p5797
I8
tp5798
a(S'bird'
p5799
I8
tp5800
a(S'assemble'
p5801
I8
tp5802
a(S'septembre'
p5803
I8
tp5804
a(S'scene'
p5805
I8
tp5806
a(S'korean'
p5807
I8
tp5808
a(S'androstenone'
p5809
I8
tp5810
a(S'ct'
p5811
I8
tp5812
a(S'vs'
p5813
I8
tp5814
a(S'fedex'
p5815
I8
tp5816
a(S'hwy'
p5817
I8
tp5818
a(S'lund'
p5819
I8
tp5820
a(S'flynn'
p5821
I8
tp5822
a(S'constantly'
p5823
I8
tp5824
a(S'int'
p5825
I8
tp5826
a(S'upload'
p5827
I8
tp5828
a(S'disc'
p5829
I8
tp5830
a(S'horn'
p5831
I8
tp5832
a(S'simultaneously'
p5833
I8
tp5834
a(S'bt'
p5835
I8
tp5836
a(S'insult'
p5837
I8
tp5838
a(S'lar'
p5839
I8
tp5840
a(S'stimulate'
p5841
I8
tp5842
a(S'seperate'
p5843
I8
tp5844
a(S'resemblance'
p5845
I8
tp5846
a(S'negotiation'
p5847
I8
tp5848
a(S'tony'
p5849
I8
tp5850
a(S'bilen'
p5851
I8
tp5852
a(S'cho'
p5853
I8
tp5854
a(S'float'
p5855
I8
tp5856
a(S'was'
p5857
I8
tp5858
a(S'grateful'
p5859
I8
tp5860
a(S'predicate'
p5861
I8
tp5862
a(S'whenever'
p5863
I8
tp5864
a(S'kirchner'
p5865
I8
tp5866
a(S'sexiest'
p5867
I8
tp5868
a(S'rake'
p5869
I8
tp5870
a(S'eg'
p5871
I8
tp5872
a(S'correction'
p5873
I8
tp5874
a(S'premier'
p5875
I8
tp5876
a(S'prepositional'
p5877
I8
tp5878
a(S'sport'
p5879
I8
tp5880
a(S'freely'
p5881
I8
tp5882
a(S'proto'
p5883
I8
tp5884
a(S'cm'
p5885
I8
tp5886
a(S'eckman'
p5887
I8
tp5888
a(S'racism'
p5889
I8
tp5890
a(S'seegmiller'
p5891
I8
tp5892
a(S'conventional'
p5893
I8
tp5894
a(S'reject'
p5895
I8
tp5896
a(S'capability'
p5897
I8
tp5898
a(S'asl'
p5899
I8
tp5900
a(S'kindly'
p5901
I8
tp5902
a(S'null'
p5903
I8
tp5904
a(S'subsection'
p5905
I8
tp5906
a(S'nights'
p5907
I8
tp5908
a(S'marck'
p5909
I8
tp5910
a(S'bureaus'
p5911
I8
tp5912
a(S'institut'
p5913
I8
tp5914
a(S'cruise'
p5915
I8
tp5916
a(S'mode'
p5917
I8
tp5918
a(S'measure'
p5919
I8
tp5920
a(S'bee'
p5921
I8
tp5922
a(S'sh'
p5923
I8
tp5924
a(S'gallery'
p5925
I8
tp5926
a(S'nostratic'
p5927
I8
tp5928
a(S'nlpeople'
p5929
I8
tp5930
a(S'lui'
p5931
I8
tp5932
a(S'carnie'
p5933
I8
tp5934
a(S'homework'
p5935
I8
tp5936
a(S'medieval'
p5937
I8
tp5938
a(S'pt'
p5939
I8
tp5940
a(S'vulgarity'
p5941
I8
tp5942
a(S'signer'
p5943
I8
tp5944
a(S'hausa'
p5945
I8
tp5946
a(S'aus'
p5947
I8
tp5948
a(S'aux'
p5949
I8
tp5950
a(S'govern'
p5951
I8
tp5952
a(S'enhance'
p5953
I8
tp5954
a(S'keyword'
p5955
I8
tp5956
a(S'preparation'
p5957
I8
tp5958
a(S'grind'
p5959
I8
tp5960
a(S'folks'
p5961
I8
tp5962
a(S'perceive'
p5963
I8
tp5964
a(S'brazil'
p5965
I8
tp5966
a(S'exception'
p5967
I8
tp5968
a(S'ix'
p5969
I8
tp5970
a(S'ip'
p5971
I8
tp5972
a(S'specialization'
p5973
I8
tp5974
a(S'bold'
p5975
I8
tp5976
a(S'intellectual'
p5977
I8
tp5978
a(S'cuban'
p5979
I8
tp5980
a(S'classic'
p5981
I8
tp5982
a(S'weekend'
p5983
I8
tp5984
a(S'murkowskus'
p5985
I8
tp5986
a(S'insider'
p5987
I8
tp5988
a(S'predict'
p5989
I8
tp5990
a(S'pure'
p5991
I8
tp5992
a(S'listing'
p5993
I8
tp5994
a(S'developments'
p5995
I8
tp5996
a(S'cognition'
p5997
I8
tp5998
a(S'derivation'
p5999
I8
tp6000
a.